TN:
SF:/home/hacker/vscode/C_plus_plus/OS_Final_Ex/Part11/algorithms/AlgorithmFactory.cpp
FNL:0,5,13
FNA:0,12,_ZN16AlgorithmFactory6createEi
FNF:1
FNH:1
DA:5,12
DA:6,12
DA:7,3
DA:8,3
DA:9,3
DA:10,3
DA:11,0
LF:7
LH:6
end_of_record
TN:
SF:/home/hacker/vscode/C_plus_plus/OS_Final_Ex/Part11/algorithms/AlgorithmStrategy.hpp
FNL:0,13,13
FNA:0,0,_ZN17AlgorithmStrategyD0Ev
FNA:0,12,_ZN17AlgorithmStrategyD2Ev
FNF:1
FNH:1
DA:13,12
LF:1
LH:1
end_of_record
TN:
SF:/home/hacker/vscode/C_plus_plus/OS_Final_Ex/Part11/algorithms/CliqueAlgorithm.hpp
FNL:0,12,18
FNA:0,3,_ZN15CliqueAlgorithm7executeB5cxx11ERKN9GraphAlgo5GraphE
FNF:1
FNH:1
DA:12,3
DA:13,3
DA:14,3
DA:15,12
DA:16,9
DA:17,6
DA:18,3
LF:7
LH:7
end_of_record
TN:
SF:/home/hacker/vscode/C_plus_plus/OS_Final_Ex/Part11/algorithms/MSTAlgorithm.hpp
FNL:0,12,15
FNA:0,3,_ZN12MSTAlgorithm7executeB5cxx11ERKN9GraphAlgo5GraphE
FNF:1
FNH:1
DA:12,3
DA:13,3
DA:14,3
LF:3
LH:3
end_of_record
TN:
SF:/home/hacker/vscode/C_plus_plus/OS_Final_Ex/Part11/algorithms/MaxFlowAlgorithm.hpp
FNL:0,12,15
FNA:0,3,_ZN16MaxFlowAlgorithm7executeB5cxx11ERKN9GraphAlgo5GraphE
FNF:1
FNH:1
DA:12,3
DA:13,3
DA:14,3
LF:3
LH:3
end_of_record
TN:
SF:/home/hacker/vscode/C_plus_plus/OS_Final_Ex/Part11/algorithms/SCCAlgorithm.hpp
FNL:0,12,22
FNA:0,3,_ZN12SCCAlgorithm7executeB5cxx11ERKN9GraphAlgo5GraphE
FNF:1
FNH:1
DA:12,3
DA:13,3
DA:14,3
DA:15,10
DA:16,7
DA:17,22
DA:18,15
DA:19,7
DA:21,3
DA:22,3
LF:10
LH:10
end_of_record
TN:
SF:/home/hacker/vscode/C_plus_plus/OS_Final_Ex/Part11/core/Graph.cpp
FNL:0,11,12
FNA:0,224,_ZN9GraphAlgo5GraphC2ERKS0_
FNL:1,15,22
FNA:1,17,_ZN9GraphAlgo5GraphaSERKS0_
FNL:2,25,30
FNA:2,273,_ZN9GraphAlgo5Graph7addEdgeEiii
FNL:3,32,40
FNA:3,0,_ZNK9GraphAlgo5Graph10printGraphEv
FNL:4,42,44
FNA:4,102,_ZNK9GraphAlgo5Graph14getVertexCountEv
FNL:5,46,48
FNA:5,582,_ZNK9GraphAlgo5Graph12getNeighborsEi
FNL:6,8,8
FNA:6,74,_ZN9GraphAlgo5GraphC2Eib
FNF:7
FNH:6
DA:8,222
DA:11,224
DA:12,224
DA:15,17
DA:16,17
DA:17,17
DA:18,17
DA:19,17
DA:21,17
DA:25,273
DA:26,273
DA:27,273
DA:28,14
DA:30,273
DA:32,0
DA:33,0
DA:34,0
DA:35,0
DA:36,0
DA:38,0
DA:40,0
DA:42,102
DA:43,102
DA:46,582
DA:47,582
LF:25
LH:18
end_of_record
TN:
SF:/home/hacker/vscode/C_plus_plus/OS_Final_Ex/Part11/core/Graph.hpp
FNL:0,15,15
FNA:0,287,_ZN9GraphAlgo4EdgeC2Eiii
FNL:1,35,35
FNA:1,51,_ZN9GraphAlgo5GraphD2Ev
FNF:2
FNH:2
DA:15,287
DA:35,51
LF:2
LH:2
end_of_record
TN:
SF:/home/hacker/vscode/C_plus_plus/OS_Final_Ex/Part11/core/GraphAlgorithms.cpp
FNL:0,105,133
FNA:0,3,_ZN9GraphAlgo7findSCCERKNS_5GraphE
FNL:1,137,147
FNA:1,3,_ZN9GraphAlgo17buildAdjacencySetERKNS_5GraphE
FNL:2,150,191
FNA:2,27,_ZN9GraphAlgo12bronKerboschERKSt6vectorISt3setIiSt4lessIiESaIiEESaIS5_EERS0_IiS4_ERS5_SC_SB_
FNL:3,193,207
FNA:3,3,_ZN9GraphAlgo13findMaxCliqueERKNS_5GraphE
FNL:4,20,22
FNA:4,3,_ZN2UFC2Ei
FNL:5,212,232
FNA:5,6,_ZN9GraphAlgo3bfsERKSt6vectorIS0_IiSaIiEESaIS2_EEiiRS2_
FNL:6,234,272
FNA:6,3,_ZN9GraphAlgo11findMaxFlowERKNS_5GraphE
FNL:7,24,28
FNA:7,40,_ZN2UF4findEi
FNL:8,30,35
FNA:8,14,_ZN2UF5uniteEii
FNL:9,42,67
FNA:9,3,_ZN9GraphAlgo13findMSTWeightERKNS_5GraphE
FNL:10,71,81
FNA:10,3,_ZN9GraphAlgo14transposeGraphERKNS_5GraphE
FNL:11,84,92
FNA:11,15,_ZN9GraphAlgo8dfsOrderERKNS_5GraphEiRSt6vectorIbSaIbEERSt5stackIiSt5dequeIiSaIiEEE
FNL:12,95,103
FNA:12,15,_ZN9GraphAlgo10dfsCollectERKNS_5GraphEiRSt6vectorIbSaIbEERS3_IiSaIiEE
FNF:13
FNH:13
DA:20,6
DA:21,18
DA:22,3
DA:24,40
DA:25,40
DA:26,12
DA:27,40
DA:30,14
DA:31,14
DA:32,14
DA:33,10
DA:34,10
DA:42,3
DA:43,3
DA:44,3
DA:47,18
DA:48,39
DA:49,24
DA:50,14
DA:55,3
DA:57,3
DA:58,3
DA:60,17
DA:61,14
DA:62,10
DA:66,3
DA:67,3
DA:71,3
DA:72,3
DA:73,3
DA:75,18
DA:76,39
DA:77,24
DA:80,3
DA:81,0
DA:84,15
DA:85,15
DA:86,39
DA:87,24
DA:88,10
DA:91,15
DA:92,15
DA:95,15
DA:96,15
DA:97,15
DA:98,39
DA:99,24
DA:100,8
DA:103,15
DA:105,3
DA:106,3
DA:107,3
DA:108,3
DA:111,18
DA:112,15
DA:113,5
DA:117,3
DA:120,3
DA:121,3
DA:123,21
DA:124,15
DA:125,15
DA:126,15
DA:127,7
DA:128,7
DA:129,7
DA:130,7
DA:132,3
DA:133,3
DA:137,3
DA:138,3
DA:139,3
DA:141,18
DA:142,39
DA:143,24
DA:146,3
DA:147,0
DA:150,27
DA:156,27
DA:157,10
DA:158,5
DA:159,10
DA:162,17
DA:163,17
DA:165,17
DA:166,48
DA:167,31
DA:168,24
DA:172,41
DA:173,24
DA:175,24
DA:176,81
DA:177,57
DA:180,24
DA:181,45
DA:182,21
DA:185,24
DA:187,24
DA:188,24
DA:189,24
DA:190,24
DA:191,17
DA:193,3
DA:194,3
DA:195,3
DA:197,3
DA:198,3
DA:200,18
DA:201,15
DA:204,3
DA:205,3
DA:206,3
DA:207,3
DA:212,6
DA:213,6
DA:214,6
DA:215,6
DA:217,6
DA:218,6
DA:220,16
DA:221,13
DA:222,75
DA:223,65
DA:224,12
DA:225,12
DA:226,3
DA:227,9
DA:231,3
DA:232,6
DA:234,3
DA:235,3
DA:236,3
DA:239,18
DA:240,39
DA:241,24
DA:245,3
DA:246,3
DA:249,6
DA:251,3
DA:252,3
DA:253,10
DA:254,7
DA:255,7
DA:256,7
DA:260,3
DA:261,10
DA:262,7
DA:263,7
DA:264,7
DA:265,7
DA:268,3
DA:271,3
DA:272,3
LF:153
LH:151
end_of_record
TN:
SF:/home/hacker/vscode/C_plus_plus/OS_Final_Ex/Part11/server/BlockingQueue.hpp
FNL:0,18,22
FNA:0,16,_ZN13BlockingQueueI12PipelineDataE4pushERKS0_
FNL:1,24,30
FNA:1,16,_ZN13BlockingQueueI12PipelineDataE3popEv
FNL:2,26,26
FNA:2,32,_ZZN13BlockingQueueI12PipelineDataE3popEvENKUlvE_clEv
FNF:3
FNH:3
DA:18,16
DA:19,16
DA:20,16
DA:21,16
DA:22,16
DA:24,16
DA:25,16
DA:26,48
DA:27,16
DA:28,16
DA:29,16
DA:30,16
LF:12
LH:12
end_of_record
TN:
SF:/home/hacker/vscode/C_plus_plus/OS_Final_Ex/Part11/server/PipelineData.hpp
FNL:0,18,18
FNA:0,4,_ZN12PipelineDataC2EN9GraphAlgo5GraphEi
FNF:1
FNH:1
DA:18,4
LF:1
LH:1
end_of_record
TN:
SF:/home/hacker/vscode/C_plus_plus/OS_Final_Ex/Part11/server/Server.cpp
FNL:0,111,120
FNA:0,1,_Z9mstWorkerv
FNL:1,122,131
FNA:1,1,_Z9sccWorkerv
FNL:2,133,142
FNA:2,1,_Z12cliqueWorkerv
FNL:3,144,160
FNA:3,1,_Z13maxFlowWorkerv
FNL:4,163,226
FNA:4,6,_Z12handleClienti
FNL:5,229,307
FNA:5,1,main
FNL:6,34,44
FNA:6,17,_Z8readLineB5cxx11i
FNL:7,46,53
FNA:7,6,_Z10readChoicei
FNL:8,56,80
FNA:8,2,_Z19readGraphFromClienti
FNL:9,83,109
FNA:9,2,_Z19generateRandomGraphiiib
FNF:10
FNH:10
DA:34,17
DA:35,17
DA:38,73
DA:39,73
DA:40,73
DA:41,56
DA:42,56
DA:43,17
DA:44,0
DA:46,6
DA:47,6
DA:49,6
DA:50,0
DA:51,0
DA:52,0
DA:53,6
DA:56,2
DA:57,2
DA:58,2
DA:61,2
DA:62,1
DA:65,1
DA:67,7
DA:68,6
DA:69,6
DA:72,6
DA:73,0
DA:76,6
DA:77,6
DA:79,1
DA:80,3
DA:83,2
DA:84,2
DA:85,2
DA:87,2
DA:88,2
DA:90,2
DA:91,2
DA:92,0
DA:95,18
DA:96,16
DA:97,16
DA:98,19
DA:100,15
DA:102,15
DA:104,12
DA:105,12
DA:108,2
DA:109,2
DA:111,1
DA:113,4
DA:114,4
DA:116,3
DA:117,3
DA:118,3
DA:119,7
DA:120,1
DA:122,1
DA:124,4
DA:125,4
DA:127,3
DA:128,3
DA:129,3
DA:130,7
DA:131,1
DA:133,1
DA:135,4
DA:136,4
DA:138,3
DA:139,3
DA:140,3
DA:141,7
DA:142,1
DA:144,1
DA:146,4
DA:147,4
DA:149,3
DA:150,3
DA:152,3
DA:153,3
DA:154,3
DA:156,3
DA:157,3
DA:158,3
DA:159,7
DA:160,1
DA:163,6
DA:169,6
DA:170,6
DA:172,6
DA:173,6
DA:174,1
DA:176,1
DA:177,1
DA:178,1
DA:179,1
DA:180,1
DA:183,5
DA:185,5
DA:186,3
DA:187,3
DA:189,3
DA:190,3
DA:192,3
DA:193,1
DA:194,1
DA:195,1
DA:196,1
DA:197,1
DA:200,2
DA:201,0
DA:202,0
DA:203,0
DA:204,0
DA:205,0
DA:206,0
DA:207,7
DA:208,2
DA:210,0
DA:211,0
DA:212,0
DA:213,0
DA:214,0
DA:217,3
DA:218,3
DA:219,9
DA:221,1
DA:222,1
DA:223,1
DA:224,1
DA:225,1
DA:229,1
DA:231,1
DA:232,1
DA:233,1
DA:234,1
DA:238,1
DA:239,1
DA:242,1
DA:243,1
DA:244,1
DA:245,1
DA:246,1
DA:247,1
DA:248,1
DA:251,1
DA:252,1
DA:253,1
DA:258,71
DA:259,1190
DA:260,70
DA:262,70
DA:263,70
DA:265,70
DA:267,70
DA:268,0
DA:269,0
DA:272,70
DA:273,6
DA:274,6
DA:275,6
DA:276,0
DA:277,0
DA:280,6
DA:281,6
DA:282,6
DA:283,6
DA:284,6
DA:285,6
DA:289,1
DA:290,1
DA:291,1
DA:292,1
DA:293,1
DA:296,1
DA:297,1
DA:298,1
DA:299,1
DA:301,1
DA:303,1
DA:304,1
DA:305,1
DA:306,1
DA:307,1
LF:184
LH:163
end_of_record
TN:
SF:/usr/include/c++/14/atomic
FNL:0,84,85
FNA:0,1,_ZNSt6atomicIbEaSEb
FNL:1,91,92
FNA:1,87,_ZNKSt6atomicIbEcvbEv
FNF:2
FNH:2
DA:84,1
DA:85,1
DA:91,87
DA:92,174
LF:4
LH:4
end_of_record
TN:
SF:/usr/include/c++/14/bit
FNL:0,201,243
FNA:0,3,_ZSt13__countl_zeroImEiT_
FNL:1,371,375
FNA:1,3,_ZSt11__bit_widthImEiT_
FNF:2
FNH:2
DA:201,3
DA:204,3
DA:206,3
DA:207,0
DA:209,3
DA:210,3
DA:211,3
DA:220,3
DA:221,3
DA:371,3
DA:373,3
DA:374,3
LF:12
LH:11
end_of_record
TN:
SF:/usr/include/c++/14/bits/alloc_traits.h
FNF:0
FNH:0
DA:515,1724
DA:550,558
DA:575,665
DA:581,665
DA:601,340
DA:613,745
DA:627,1319
DA:767,0
DA:993,332
DA:994,332
LF:10
LH:9
end_of_record
TN:
SF:/usr/include/c++/14/bits/allocator.h
FNF:0
FNH:0
DA:161,433
DA:166,2817
DA:176,29
DA:182,1542
DA:221,0
LF:5
LH:4
end_of_record
TN:
SF:/usr/include/c++/14/bits/atomic_base.h
FNL:0,109,112
FNA:0,88,_ZStanSt12memory_orderSt23__memory_order_modifier
FNL:1,367,371
FNA:1,1,_ZNSt13__atomic_baseIbEaSEb
FNF:2
FNH:2
DA:109,88
DA:111,88
DA:367,1
DA:369,1
DA:370,1
DA:472,1
DA:473,1
DA:474,1
DA:475,1
DA:477,1
DA:478,1
DA:497,87
DA:498,87
DA:499,87
DA:501,87
LF:15
LH:15
end_of_record
TN:
SF:/usr/include/c++/14/bits/basic_string.h
FNL:0,3573,3586
FNA:0,6,_ZSt12__str_concatINSt7__cxx1112basic_stringIcSt11char_traitsIcESaIcEEEET_PKNS6_10value_typeENS6_9size_typeES9_SA_RKNS6_14allocator_typeE
FNL:1,3598,3605
FNA:1,3,_ZStplIcSt11char_traitsIcESaIcEENSt7__cxx1112basic_stringIT_T0_T1_EERKS8_SA_
FNL:2,3652,3660
FNA:2,3,_ZStplIcSt11char_traitsIcESaIcEENSt7__cxx1112basic_stringIT_T0_T1_EERKS8_PKS5_
FNL:3,3682,3684
FNA:3,6,_ZStplIcSt11char_traitsIcESaIcEENSt7__cxx1112basic_stringIT_T0_T1_EEOS8_RKS8_
FNL:4,3719,3721
FNA:4,12,_ZStplIcSt11char_traitsIcESaIcEENSt7__cxx1112basic_stringIT_T0_T1_EEPKS5_OS8_
FNL:5,3733,3735
FNA:5,36,_ZStplIcSt11char_traitsIcESaIcEENSt7__cxx1112basic_stringIT_T0_T1_EEOS8_PKS5_
FNL:6,4164,4166
FNA:6,6,_ZNSt7__cxx114stoiERKNS_12basic_stringIcSt11char_traitsIcESaIcEEEPmi
FNL:7,4240,4255
FNA:7,30,_ZNSt7__cxx119to_stringEi
FNL:8,4249,4253
FNA:8,30,_ZZNSt7__cxx119to_stringEiENKUlPcmE_clES0_m
FNL:9,4294,4306
FNA:9,6,_ZNSt7__cxx119to_stringEm
FNL:10,4301,4304
FNA:10,6,_ZZNSt7__cxx119to_stringEmENKUlPcmE_clES0_m
FNL:11,646,655
FNA:11,10,_ZNSt7__cxx1112basic_stringIcSt11char_traitsIcESaIcEEC2IS3_EEPKcRKS3_
FNF:12
FNH:12
DA:360,0
DA:646,10
DA:647,10
DA:650,10
DA:651,0
DA:653,10
DA:654,10
DA:655,10
DA:3573,6
DA:3581,6
DA:3582,6
DA:3583,6
DA:3584,6
DA:3585,6
DA:3586,0
DA:3598,3
DA:3604,6
DA:3652,3
DA:3659,6
DA:3682,6
DA:3684,6
DA:3719,12
DA:3721,12
DA:3733,36
DA:3735,36
DA:4164,6
DA:4165,6
DA:4166,6
DA:4240,30
DA:4245,30
DA:4246,30
DA:4247,30
DA:4248,30
DA:4249,30
DA:4250,30
DA:4251,30
DA:4252,30
DA:4254,30
DA:4294,6
DA:4299,6
DA:4300,6
DA:4301,6
DA:4302,6
DA:4303,6
DA:4305,6
DA:4306,0
LF:46
LH:42
end_of_record
TN:
SF:/usr/include/c++/14/bits/basic_string.tcc
FNL:0,221,252
FNA:0,10,_ZNSt7__cxx1112basic_stringIcSt11char_traitsIcESaIcEE12_M_constructIPKcEEvT_S8_St20forward_iterator_tag
FNA:0,0,_ZNSt7__cxx1112basic_stringIcSt11char_traitsIcESaIcEE12_M_constructIPcEEvT_S7_St20forward_iterator_tag
FNL:1,239,239
FNA:1,10,_ZZNSt7__cxx1112basic_stringIcSt11char_traitsIcESaIcEE12_M_constructIPKcEEvT_S8_St20forward_iterator_tagEN6_GuardC2EPS4_
FNA:1,0,_ZZNSt7__cxx1112basic_stringIcSt11char_traitsIcESaIcEE12_M_constructIPcEEvT_S7_St20forward_iterator_tagEN6_GuardC2EPS4_
FNL:2,242,242
FNA:2,10,_ZZNSt7__cxx1112basic_stringIcSt11char_traitsIcESaIcEE12_M_constructIPKcEEvT_S8_St20forward_iterator_tagEN6_GuardD2Ev
FNA:2,0,_ZZNSt7__cxx1112basic_stringIcSt11char_traitsIcESaIcEE12_M_constructIPcEEvT_S7_St20forward_iterator_tagEN6_GuardD2Ev
FNL:3,583,613
FNA:3,30,_ZNSt7__cxx1112basic_stringIcSt11char_traitsIcESaIcEE22__resize_and_overwriteIZNS_9to_stringEiEUlPcmE_EEvmT_
FNA:3,6,_ZNSt7__cxx1112basic_stringIcSt11char_traitsIcESaIcEE22__resize_and_overwriteIZNS_9to_stringEmEUlPcmE_EEvmT_
FNL:4,597,597
FNA:4,30,_ZZNSt7__cxx1112basic_stringIcSt11char_traitsIcESaIcEE22__resize_and_overwriteIZNS_9to_stringEiEUlPcmE_EEvmT_EN11_TerminatorD2Ev
FNA:4,6,_ZZNSt7__cxx1112basic_stringIcSt11char_traitsIcESaIcEE22__resize_and_overwriteIZNS_9to_stringEmEUlPcmE_EEvmT_EN11_TerminatorD2Ev
FNF:5
FNH:5
DA:221,10
DA:225,10
DA:227,10
DA:229,10
DA:230,10
DA:239,10
DA:242,10
DA:245,10
DA:247,10
DA:249,10
DA:251,10
DA:252,10
DA:583,36
DA:590,36
DA:591,36
DA:597,36
DA:601,36
DA:602,36
DA:610,36
DA:611,36
DA:612,0
DA:613,36
LF:22
LH:21
end_of_record
TN:
SF:/usr/include/c++/14/bits/char_traits.h
FNL:0,136,137
FNA:0,0,_ZN9__gnu_cxx11char_traitsIcE2eqERKcS3_
FNL:1,199,206
FNA:1,0,_ZN9__gnu_cxx11char_traitsIcE6lengthEPKc
FNL:2,385,392
FNA:2,13,_ZNSt11char_traitsIcE6lengthEPKc
FNL:3,419,428
FNA:3,0,_ZNSt11char_traitsIcE4copyEPcPKcm
FNF:4
FNH:1
DA:136,0
DA:137,0
DA:199,0
DA:202,0
DA:203,0
DA:204,0
DA:205,0
DA:385,13
DA:388,13
DA:389,0
DA:391,13
DA:419,0
DA:421,0
DA:422,0
DA:427,0
LF:15
LH:3
end_of_record
TN:
SF:/usr/include/c++/14/bits/charconv.h
FNL:0,55,74
FNA:0,30,_ZNSt8__detail14__to_chars_lenIjEEjT_i
FNA:0,6,_ZNSt8__detail14__to_chars_lenImEEjT_i
FNL:1,81,110
FNA:1,30,_ZNSt8__detail18__to_chars_10_implIjEEvPcjT_
FNA:1,6,_ZNSt8__detail18__to_chars_10_implImEEvPcjT_
FNF:2
FNH:2
DA:55,36
DA:61,36
DA:62,36
DA:63,36
DA:64,36
DA:67,36
DA:68,0
DA:69,0
DA:70,0
DA:71,0
DA:72,0
DA:81,36
DA:87,36
DA:93,36
DA:94,36
DA:96,0
DA:97,0
DA:98,0
DA:99,0
DA:100,0
DA:102,36
DA:104,0
DA:105,0
DA:106,0
DA:109,36
DA:110,36
LF:26
LH:13
end_of_record
TN:
SF:/usr/include/c++/14/bits/cpp_type_traits.h
FNL:0,608,609
FNA:0,0,_ZSt12__miter_baseIN9__gnu_cxx17__normal_iteratorIPKN9GraphAlgo4EdgeESt6vectorIS3_SaIS3_EEEEET_SA_
FNA:0,0,_ZSt12__miter_baseIN9__gnu_cxx17__normal_iteratorIPKSt6vectorIN9GraphAlgo4EdgeESaIS4_EES2_IS6_SaIS6_EEEEET_SC_
FNA:0,54,_ZSt12__miter_baseIN9__gnu_cxx17__normal_iteratorIPKiSt6vectorIiSaIiEEEEET_S8_
FNA:0,2,_ZSt12__miter_baseIN9__gnu_cxx17__normal_iteratorIPSt5tupleIJiiiEESt6vectorIS3_SaIS3_EEEEET_S9_
FNA:0,0,_ZSt12__miter_baseIPN9GraphAlgo4EdgeEET_S3_
FNA:0,0,_ZSt12__miter_baseIPP12PipelineDataET_S3_
FNA:0,0,_ZSt12__miter_baseIPPiET_S2_
FNA:0,0,_ZSt12__miter_baseIPSt6vectorIN9GraphAlgo4EdgeESaIS2_EEET_S6_
FNA:0,0,_ZSt12__miter_baseIPiET_S1_
FNA:0,0,_ZSt12__miter_baseIPmET_S1_
FNA:0,0,_ZSt12__miter_baseISt13_Bit_iteratorET_S1_
FNA:0,0,_ZSt12__miter_baseISt19_Bit_const_iteratorET_S1_
FNF:1
FNH:1
DA:608,56
DA:609,56
LF:2
LH:2
end_of_record
TN:
SF:/usr/include/c++/14/bits/deque.tcc
FNL:0,484,516
FNA:0,4,_ZNSt5dequeI12PipelineDataSaIS0_EE16_M_push_back_auxIJRKS0_EEEvDpOT_
FNA:0,0,_ZNSt5dequeIiSaIiEE16_M_push_back_auxIJRKiEEEvDpOT_
FNL:1,560,568
FNA:1,0,_ZNSt5dequeIiSaIiEE15_M_pop_back_auxEv
FNL:2,576,584
FNA:2,4,_ZNSt5dequeI12PipelineDataSaIS0_EE16_M_pop_front_auxEv
FNA:2,0,_ZNSt5dequeIiSaIiEE16_M_pop_front_auxEv
FNL:3,862,880
FNA:3,4,_ZNSt5dequeI12PipelineDataSaIS0_EE19_M_destroy_data_auxESt15_Deque_iteratorIS0_RS0_PS0_ES6_
FNL:4,934,976
FNA:4,0,_ZNSt5dequeI12PipelineDataSaIS0_EE17_M_reallocate_mapEmb
FNA:4,0,_ZNSt5dequeIiSaIiEE17_M_reallocate_mapEmb
FNF:5
FNH:3
DA:484,4
DA:492,4
DA:493,0
DA:496,4
DA:497,4
DA:501,4
DA:507,4
DA:509,4
DA:511,0
DA:513,0
DA:514,0
DA:516,4
DA:560,0
DA:563,0
DA:564,0
DA:565,0
DA:566,0
DA:568,0
DA:576,4
DA:579,4
DA:581,4
DA:582,4
DA:583,4
DA:584,4
DA:862,4
DA:865,4
DA:866,4
DA:867,0
DA:868,0
DA:870,4
DA:872,0
DA:873,0
DA:874,0
DA:875,0
DA:878,4
DA:879,4
DA:880,4
DA:934,0
DA:937,0
DA:938,0
DA:939,0
DA:942,0
DA:944,0
DA:945,0
DA:946,0
DA:947,0
DA:948,0
DA:949,0
DA:952,0
DA:953,0
DA:954,0
DA:958,0
DA:959,0
DA:962,0
DA:963,0
DA:964,0
DA:965,0
DA:966,0
DA:968,0
DA:970,0
DA:971,0
DA:974,0
DA:975,0
DA:976,0
LF:64
LH:21
end_of_record
TN:
SF:/usr/include/c++/14/bits/invoke.h
FNL:0,60,61
FNA:0,6,_ZSt13__invoke_implIvPFviEJiEET_St14__invoke_otherOT0_DpOT1_
FNA:0,4,_ZSt13__invoke_implIvPFvvEJEET_St14__invoke_otherOT0_DpOT1_
FNL:1,90,98
FNA:1,6,_ZSt8__invokeIPFviEJiEENSt15__invoke_resultIT_JDpT0_EE4typeEOS3_DpOS4_
FNA:1,4,_ZSt8__invokeIPFvvEJEENSt15__invoke_resultIT_JDpT0_EE4typeEOS3_DpOS4_
FNF:2
FNH:2
DA:60,10
DA:61,10
DA:90,10
DA:96,10
DA:97,10
LF:5
LH:5
end_of_record
TN:
SF:/usr/include/c++/14/bits/move.h
FNL:0,137,138
FNA:0,131,_ZSt4moveIRN9GraphAlgo4EdgeEEONSt16remove_referenceIT_E4typeEOS4_
FNA:0,0,_ZSt4moveIRN9__gnu_cxx5__ops15_Iter_less_iterEEONSt16remove_referenceIT_E4typeEOS5_
FNA:0,8,_ZSt4moveIRNSt12_Vector_baseIiSaIiEE12_Vector_implEEONSt16remove_referenceIT_E4typeEOS6_
FNA:0,54,_ZSt4moveIRNSt7__cxx1112basic_stringIcSt11char_traitsIcESaIcEEEEONSt16remove_referenceIT_E4typeEOS8_
FNA:0,0,_ZSt4moveIRP12MSTAlgorithmEONSt16remove_referenceIT_E4typeEOS4_
FNA:0,0,_ZSt4moveIRP12SCCAlgorithmEONSt16remove_referenceIT_E4typeEOS4_
FNA:0,0,_ZSt4moveIRP15CliqueAlgorithmEONSt16remove_referenceIT_E4typeEOS4_
FNA:0,0,_ZSt4moveIRP16MaxFlowAlgorithmEONSt16remove_referenceIT_E4typeEOS4_
FNA:0,12,_ZSt4moveIRP17AlgorithmStrategyEONSt16remove_referenceIT_E4typeEOS4_
FNA:0,0,_ZSt4moveIRPNSt6thread6_StateEEONSt16remove_referenceIT_E4typeEOS5_
FNA:0,0,_ZSt4moveIRSaIcEEONSt16remove_referenceIT_E4typeEOS3_
FNA:0,13,_ZSt4moveIRSt11_Tuple_implILm1EJiiEEEONSt16remove_referenceIT_E4typeEOS4_
FNA:0,13,_ZSt4moveIRSt11_Tuple_implILm2EJiEEEONSt16remove_referenceIT_E4typeEOS4_
FNA:0,12,_ZSt4moveIRSt5tupleIJPFviEiEEEONSt16remove_referenceIT_E4typeEOS6_
FNA:0,4,_ZSt4moveIRSt5tupleIJPFvvEEEEONSt16remove_referenceIT_E4typeEOS6_
FNA:0,68,_ZSt4moveIRSt5tupleIJiiiEEEONSt16remove_referenceIT_E4typeEOS4_
FNA:0,4,_ZSt4moveIRSt6vectorIiSaIiEEEONSt16remove_referenceIT_E4typeEOS5_
FNA:0,30,_ZSt4moveIRZNSt7__cxx119to_stringEiEUlPcmE_EONSt16remove_referenceIT_E4typeEOS5_
FNA:0,6,_ZSt4moveIRZNSt7__cxx119to_stringEmEUlPcmE_EONSt16remove_referenceIT_E4typeEOS5_
FNA:0,0,_ZSt4moveIRiEONSt16remove_referenceIT_E4typeEOS2_
FNL:1,226,237
FNA:1,0,_ZSt4swapIiENSt9enable_ifIXsrSt6__and_IJSt6__not_ISt15__is_tuple_likeIT_EESt21is_move_constructibleIS4_ESt18is_move_assignableIS4_EEE5valueEvE4typeERS4_SE_
FNL:2,51,52
FNA:2,0,_ZSt11__addressofI12PipelineDataEPT_RS1_
FNA:2,0,_ZSt11__addressofIKSt6vectorIN9GraphAlgo4EdgeESaIS2_EEEPT_RS6_
FNA:2,17,_ZSt11__addressofIKSt6vectorIS0_IN9GraphAlgo4EdgeESaIS2_EESaIS4_EEEPT_RS8_
FNA:2,5,_ZSt11__addressofIKSt6vectorIiSaIiEEEPT_RS4_
FNA:2,1933,_ZSt11__addressofIN9GraphAlgo4EdgeEEPT_RS2_
FNA:2,30,_ZSt11__addressofISt3setIiSt4lessIiESaIiEEEPT_RS5_
FNA:2,32,_ZSt11__addressofISt5mutexEPT_RS1_
FNA:2,51,_ZSt11__addressofISt5tupleIJiiiEEEPT_RS2_
FNA:2,390,_ZSt11__addressofISt6vectorIN9GraphAlgo4EdgeESaIS2_EEEPT_RS5_
FNA:2,49,_ZSt11__addressofISt6vectorIiSaIiEEEPT_RS3_
FNA:2,6,_ZSt11__addressofIiEPT_RS0_
FNA:2,12,_ZSt11__addressofImEPT_RS0_
FNL:3,71,72
FNA:3,262,_ZSt7forwardIN9GraphAlgo4EdgeEEOT_RNSt16remove_referenceIS2_E4typeE
FNA:3,18,_ZSt7forwardIPFviEEOT_RNSt16remove_referenceIS2_E4typeE
FNA:3,12,_ZSt7forwardIPFvvEEOT_RNSt16remove_referenceIS2_E4typeE
FNA:3,30,_ZSt7forwardIRFviEEOT_RNSt16remove_referenceIS2_E4typeE
FNA:3,12,_ZSt7forwardIRFvvEEOT_RNSt16remove_referenceIS2_E4typeE
FNA:3,36,_ZSt7forwardIRK12PipelineDataEOT_RNSt16remove_referenceIS3_E4typeE
FNA:3,1540,_ZSt7forwardIRKN9GraphAlgo4EdgeEEOT_RNSt16remove_referenceIS4_E4typeE
FNA:3,84,_ZSt7forwardIRKSt4pairIiiEEOT_RNSt16remove_referenceIS4_E4typeE
FNA:3,1067,_ZSt7forwardIRKSt6vectorIN9GraphAlgo4EdgeESaIS2_EEEOT_RNSt16remove_referenceIS7_E4typeE
FNA:3,35,_ZSt7forwardIRKSt6vectorIiSaIiEEEOT_RNSt16remove_referenceIS5_E4typeE
FNA:3,1000,_ZSt7forwardIRKiEOT_RNSt16remove_referenceIS2_E4typeE
FNA:3,0,_ZSt7forwardIRN9GraphAlgo4EdgeEEOT_RNSt16remove_referenceIS3_E4typeE
FNA:3,36,_ZSt7forwardIRP17AlgorithmStrategyEOT_RNSt16remove_referenceIS3_E4typeE
FNA:3,12,_ZSt7forwardIRPSt13_Rb_tree_nodeISt4pairIiiEEEOT_RNSt16remove_referenceIS6_E4typeE
FNA:3,108,_ZSt7forwardIRPSt13_Rb_tree_nodeIiEEOT_RNSt16remove_referenceIS4_E4typeE
FNA:3,120,_ZSt7forwardIRPSt18_Rb_tree_node_baseEOT_RNSt16remove_referenceIS3_E4typeE
FNA:3,12,_ZSt7forwardIRSt17_Rb_tree_iteratorISt4pairIiiEEEOT_RNSt16remove_referenceIS5_E4typeE
FNA:3,108,_ZSt7forwardIRSt17_Rb_tree_iteratorIiEEOT_RNSt16remove_referenceIS3_E4typeE
FNA:3,0,_ZSt7forwardIRSt6vectorIN9GraphAlgo4EdgeESaIS2_EEEOT_RNSt16remove_referenceIS6_E4typeE
FNA:3,120,_ZSt7forwardIRbEOT_RNSt16remove_referenceIS1_E4typeE
FNA:3,706,_ZSt7forwardIRiEOT_RNSt16remove_referenceIS1_E4typeE
FNA:3,18,_ZSt7forwardISt14default_deleteI12MSTAlgorithmEEOT_RNSt16remove_referenceIS3_E4typeE
FNA:3,18,_ZSt7forwardISt14default_deleteI12SCCAlgorithmEEOT_RNSt16remove_referenceIS3_E4typeE
FNA:3,18,_ZSt7forwardISt14default_deleteI15CliqueAlgorithmEEOT_RNSt16remove_referenceIS3_E4typeE
FNA:3,18,_ZSt7forwardISt14default_deleteI16MaxFlowAlgorithmEEOT_RNSt16remove_referenceIS3_E4typeE
FNA:3,12,_ZSt7forwardISt17_Rb_tree_iteratorISt4pairIiiEEEOT_RNSt16remove_referenceIS4_E4typeE
FNA:3,156,_ZSt7forwardISt17_Rb_tree_iteratorIiEEOT_RNSt16remove_referenceIS2_E4typeE
FNA:3,87,_ZSt7forwardISt5tupleIJiiiEEEOT_RNSt16remove_referenceIS2_E4typeE
FNA:3,8,_ZSt7forwardISt6vectorIiSaIiEEEOT_RNSt16remove_referenceIS3_E4typeE
FNA:3,120,_ZSt7forwardIbEOT_RNSt16remove_referenceIS0_E4typeE
FNA:3,99,_ZSt7forwardIiEOT_RNSt16remove_referenceIS0_E4typeE
FNF:4
FNH:3
DA:51,2525
DA:52,2525
DA:71,5872
DA:72,5872
DA:137,355
DA:138,355
DA:226,0
DA:234,0
DA:235,0
DA:236,0
DA:237,0
LF:11
LH:6
end_of_record
TN:
SF:/usr/include/c++/14/bits/new_allocator.h
FNL:0,104,104
FNA:0,4,_ZNSt15__new_allocatorI12PipelineDataED2Ev
FNA:0,360,_ZNSt15__new_allocatorIN9GraphAlgo4EdgeEED2Ev
FNA:0,8,_ZNSt15__new_allocatorIP12PipelineDataED2Ev
FNA:0,18,_ZNSt15__new_allocatorIPiED2Ev
FNA:0,2,_ZNSt15__new_allocatorISt13_Rb_tree_nodeISt4pairIiiEEED2Ev
FNA:0,86,_ZNSt15__new_allocatorISt13_Rb_tree_nodeIiEED2Ev
FNA:0,9,_ZNSt15__new_allocatorISt3setIiSt4lessIiESaIiEEED2Ev
FNA:0,3,_ZNSt15__new_allocatorISt5tupleIJiiiEEED2Ev
FNA:0,114,_ZNSt15__new_allocatorISt6vectorIN9GraphAlgo4EdgeESaIS2_EEED2Ev
FNA:0,12,_ZNSt15__new_allocatorISt6vectorIiSaIiEEED2Ev
FNA:0,3,_ZNSt15__new_allocatorIbED2Ev
FNA:0,22,_ZNSt15__new_allocatorIcED2Ev
FNA:0,97,_ZNSt15__new_allocatorIiED2Ev
FNA:0,6,_ZNSt15__new_allocatorImED2Ev
FNL:1,126,152
FNA:1,8,_ZNSt15__new_allocatorI12PipelineDataE8allocateEmPKv
FNA:1,1266,_ZNSt15__new_allocatorIN9GraphAlgo4EdgeEE8allocateEmPKv
FNA:1,4,_ZNSt15__new_allocatorIP12PipelineDataE8allocateEmPKv
FNA:1,9,_ZNSt15__new_allocatorIPiE8allocateEmPKv
FNA:1,12,_ZNSt15__new_allocatorISt13_Rb_tree_nodeISt4pairIiiEEE8allocateEmPKv
FNA:1,108,_ZNSt15__new_allocatorISt13_Rb_tree_nodeIiEE8allocateEmPKv
FNA:1,3,_ZNSt15__new_allocatorISt3setIiSt4lessIiESaIiEEE8allocateEmPKv
FNA:1,11,_ZNSt15__new_allocatorISt5tupleIJiiiEEE8allocateEmPKv
FNA:1,224,_ZNSt15__new_allocatorISt6vectorIN9GraphAlgo4EdgeESaIS2_EEE8allocateEmPKv
FNA:1,9,_ZNSt15__new_allocatorISt6vectorIiSaIiEEE8allocateEmPKv
FNA:1,67,_ZNSt15__new_allocatorIiE8allocateEmPKv
FNA:1,3,_ZNSt15__new_allocatorImE8allocateEmPKv
FNL:2,156,173
FNA:2,8,_ZNSt15__new_allocatorI12PipelineDataE10deallocateEPS0_m
FNA:2,202,_ZNSt15__new_allocatorIN9GraphAlgo4EdgeEE10deallocateEPS1_m
FNA:2,4,_ZNSt15__new_allocatorIP12PipelineDataE10deallocateEPS1_m
FNA:2,9,_ZNSt15__new_allocatorIPiE10deallocateEPS0_m
FNA:2,12,_ZNSt15__new_allocatorISt13_Rb_tree_nodeISt4pairIiiEEE10deallocateEPS3_m
FNA:2,108,_ZNSt15__new_allocatorISt13_Rb_tree_nodeIiEE10deallocateEPS1_m
FNA:2,3,_ZNSt15__new_allocatorISt3setIiSt4lessIiESaIiEEE10deallocateEPS4_m
FNA:2,11,_ZNSt15__new_allocatorISt5tupleIJiiiEEE10deallocateEPS1_m
FNA:2,39,_ZNSt15__new_allocatorISt6vectorIN9GraphAlgo4EdgeESaIS2_EEE10deallocateEPS4_m
FNA:2,9,_ZNSt15__new_allocatorISt6vectorIiSaIiEEE10deallocateEPS2_m
FNA:2,67,_ZNSt15__new_allocatorIiE10deallocateEPim
FNA:2,3,_ZNSt15__new_allocatorImE10deallocateEPmm
FNF:3
FNH:3
DA:88,462
DA:92,2817
DA:104,744
DA:126,1724
DA:134,1724
DA:138,0
DA:139,0
DA:140,0
DA:151,1724
DA:156,475
DA:172,475
DA:183,745
DA:191,665
DA:198,340
DA:233,2469
LF:15
LH:12
end_of_record
TN:
SF:/usr/include/c++/14/bits/predefined_ops.h
FNL:0,108,109
FNA:0,10,_ZN9__gnu_cxx5__ops15__val_comp_iterENS0_15_Iter_less_iterE
FNL:1,44,45
FNA:1,11,_ZNK9__gnu_cxx5__ops15_Iter_less_iterclINS_17__normal_iteratorIPSt5tupleIJiiiEESt6vectorIS5_SaIS5_EEEESA_EEbT_T0_
FNL:2,50,51
FNA:2,3,_ZN9__gnu_cxx5__ops16__iter_less_iterEv
FNL:3,63,63
FNA:3,0,_ZN9__gnu_cxx5__ops14_Iter_less_valC2ENS0_15_Iter_less_iterE
FNL:4,68,69
FNA:4,0,_ZNK9__gnu_cxx5__ops14_Iter_less_valclINS_17__normal_iteratorIPSt5tupleIJiiiEESt6vectorIS5_SaIS5_EEEES5_EEbT_RT0_
FNL:5,97,98
FNA:5,11,_ZNK9__gnu_cxx5__ops14_Val_less_iterclISt5tupleIJiiiEENS_17__normal_iteratorIPS4_St6vectorIS4_SaIS4_EEEEEEbRT_T0_
FNF:6
FNH:4
DA:44,11
DA:45,11
DA:50,3
DA:51,3
DA:63,0
DA:68,0
DA:69,0
DA:97,11
DA:98,11
DA:108,10
DA:109,10
LF:11
LH:8
end_of_record
TN:
SF:/usr/include/c++/14/bits/ptr_traits.h
FNL:0,205,209
FNA:0,287,_ZSt12__to_addressIN9GraphAlgo4EdgeEEPT_S3_
FNA:0,11,_ZSt12__to_addressISt5tupleIJiiiEEEPT_S3_
FNA:0,6,_ZSt12__to_addressISt6vectorIiSaIiEEEPT_S4_
FNA:0,22,_ZSt12__to_addressIiEPT_S1_
FNF:1
FNH:1
DA:205,326
DA:208,326
LF:2
LH:2
end_of_record
TN:
SF:/usr/include/c++/14/bits/random.h
FNL:0,244,250
FNA:0,1248,_ZNSt8__detail4_ModImLm4294967296ELm1ELm0ELb1ELb1EE6__calcEm
FNA:0,1246,_ZNSt8__detail4_ModImLm624ELm1ELm0ELb1ELb1EE6__calcEm
FNL:1,255,261
FNA:1,1248,_ZNSt8__detail5__modImLm4294967296ELm1ELm0EEET_S1_
FNA:1,1246,_ZNSt8__detail5__modImLm624ELm1ELm0EEET_S1_
FNL:2,647,648
FNA:2,2,_ZNSt23mersenne_twister_engineImLm32ELm624ELm397ELm31ELm2567483615ELm11ELm4294967295ELm7ELm2636928640ELm15ELm4022730752ELm18ELm1812433253EEC2Em
FNF:3
FNH:3
DA:244,2494
DA:246,2494
DA:248,2494
DA:249,2494
DA:255,2494
DA:260,2494
DA:647,2
DA:648,2
LF:8
LH:8
end_of_record
TN:
SF:/usr/include/c++/14/bits/random.tcc
FNL:0,326,343
FNA:0,2,_ZNSt23mersenne_twister_engineImLm32ELm624ELm397ELm31ELm2567483615ELm11ELm4294967295ELm7ELm2636928640ELm15ELm4022730752ELm18ELm1812433253EE4seedEm
FNL:1,397,425
FNA:1,2,_ZNSt23mersenne_twister_engineImLm32ELm624ELm397ELm31ELm2567483615ELm11ELm4294967295ELm7ELm2636928640ELm15ELm4022730752ELm18ELm1812433253EE11_M_gen_randEv
FNL:2,453,469
FNA:2,32,_ZNSt23mersenne_twister_engineImLm32ELm624ELm397ELm31ELm2567483615ELm11ELm4294967295ELm7ELm2636928640ELm15ELm4022730752ELm18ELm1812433253EEclEv
FNF:3
FNH:3
DA:326,2
DA:330,2
DA:331,2
DA:333,1248
DA:335,1246
DA:336,1246
DA:337,1246
DA:338,1246
DA:339,1246
DA:340,1246
DA:342,2
DA:343,2
DA:397,2
DA:401,2
DA:402,2
DA:404,456
DA:406,454
DA:407,454
DA:408,908
DA:409,454
DA:412,794
DA:414,792
DA:415,792
DA:416,1584
DA:417,792
DA:420,2
DA:421,2
DA:422,4
DA:423,2
DA:424,2
DA:425,2
DA:453,32
DA:458,32
DA:459,2
DA:462,32
DA:463,32
DA:464,32
DA:465,32
DA:466,32
DA:468,32
LF:40
LH:40
end_of_record
TN:
SF:/usr/include/c++/14/bits/std_mutex.h
FNL:0,104,104
FNA:0,4,_ZNSt5mutexC2Ev
FNL:1,111,118
FNA:1,45,_ZNSt5mutex4lockEv
FNL:2,129,133
FNA:2,45,_ZNSt5mutex6unlockEv
FNL:3,249,250
FNA:3,13,_ZNSt10lock_guardISt5mutexEC2ERS0_
FNL:4,256,257
FNA:4,13,_ZNSt10lock_guardISt5mutexED2Ev
FNL:5,67,67
FNA:5,4,_ZNSt12__mutex_baseC2Ev
FNF:6
FNH:6
DA:67,4
DA:104,4
DA:111,45
DA:113,45
DA:116,45
DA:117,0
DA:118,45
DA:129,45
DA:132,45
DA:133,45
DA:249,13
DA:250,13
DA:256,13
DA:257,13
LF:14
LH:13
end_of_record
TN:
SF:/usr/include/c++/14/bits/std_thread.h
FNL:0,101,101
FNA:0,20,_ZNSt6thread2idC2Ev
FNL:1,152,157
FNA:1,0,_ZNSt6thread24_M_thread_deps_never_runEv
FNL:2,163,176
FNA:2,6,_ZNSt6threadC2IRFviEJRiEvEEOT_DpOT0_
FNA:2,4,_ZNSt6threadC2IRFvvEJEvEEOT_DpOT0_
FNL:3,179,183
FNA:3,10,_ZNSt6threadD2Ev
FNL:4,205,206
FNA:4,10,_ZNKSt6thread8joinableEv
FNL:5,248,250
FNA:5,6,_ZNSt6thread11_State_implINS_8_InvokerISt5tupleIJPFviEiEEEEEC2IJRS3_RiEEEDpOT_
FNA:5,4,_ZNSt6thread11_State_implINS_8_InvokerISt5tupleIJPFvvEEEEEEC2IJRS3_EEEDpOT_
FNL:6,253,253
FNA:6,6,_ZNSt6thread11_State_implINS_8_InvokerISt5tupleIJPFviEiEEEEE6_M_runEv
FNA:6,4,_ZNSt6thread11_State_implINS_8_InvokerISt5tupleIJPFvvEEEEEE6_M_runEv
FNL:7,285,287
FNA:7,6,_ZNSt6thread8_InvokerISt5tupleIJPFviEiEEEC2IJRS2_RiEEEDpOT_
FNA:7,4,_ZNSt6thread8_InvokerISt5tupleIJPFvvEEEEC2IJRS2_EEEDpOT_
FNL:8,300,301
FNA:8,6,_ZNSt6thread8_InvokerISt5tupleIJPFviEiEEE9_M_invokeIJLm0ELm1EEEEvSt12_Index_tupleIJXspT_EEE
FNA:8,4,_ZNSt6thread8_InvokerISt5tupleIJPFvvEEEE9_M_invokeIJLm0EEEEvSt12_Index_tupleIJXspT_EEE
FNL:9,304,309
FNA:9,6,_ZNSt6thread8_InvokerISt5tupleIJPFviEiEEEclEv
FNA:9,4,_ZNSt6thread8_InvokerISt5tupleIJPFvvEEEEclEv
FNL:10,333,340
FNA:10,10,_ZSteqNSt6thread2idES0_
FNF:11
FNH:10
DA:101,20
DA:152,0
DA:157,0
DA:163,10
DA:164,10
DA:173,10
DA:176,10
DA:179,10
DA:181,10
DA:183,10
DA:205,10
DA:206,10
DA:248,10
DA:249,10
DA:250,10
DA:253,10
DA:285,10
DA:286,10
DA:287,10
DA:300,10
DA:301,10
DA:304,10
DA:308,10
DA:333,10
DA:339,10
LF:25
LH:23
end_of_record
TN:
SF:/usr/include/c++/14/bits/stl_algo.h
FNL:0,1589,1597
FNA:0,0,_ZSt13__heap_selectIN9__gnu_cxx17__normal_iteratorIPSt5tupleIJiiiEESt6vectorIS3_SaIS3_EEEENS0_5__ops15_Iter_less_iterEEvT_SB_SB_T0_
FNL:1,1750,1764
FNA:1,10,_ZSt25__unguarded_linear_insertIN9__gnu_cxx17__normal_iteratorIPSt5tupleIJiiiEESt6vectorIS3_SaIS3_EEEENS0_5__ops14_Val_less_iterEEvT_T0_
FNL:2,1770,1788
FNA:2,3,_ZSt16__insertion_sortIN9__gnu_cxx17__normal_iteratorIPSt5tupleIJiiiEESt6vectorIS3_SaIS3_EEEENS0_5__ops15_Iter_less_iterEEvT_SB_T0_
FNL:3,1794,1800
FNA:3,0,_ZSt26__unguarded_insertion_sortIN9__gnu_cxx17__normal_iteratorIPSt5tupleIJiiiEESt6vectorIS3_SaIS3_EEEENS0_5__ops15_Iter_less_iterEEvT_SB_T0_
FNL:4,1812,1823
FNA:4,3,_ZSt22__final_insertion_sortIN9__gnu_cxx17__normal_iteratorIPSt5tupleIJiiiEESt6vectorIS3_SaIS3_EEEENS0_5__ops15_Iter_less_iterEEvT_SB_T0_
FNL:5,1829,1845
FNA:5,0,_ZSt21__unguarded_partitionIN9__gnu_cxx17__normal_iteratorIPSt5tupleIJiiiEESt6vectorIS3_SaIS3_EEEENS0_5__ops15_Iter_less_iterEET_SB_SB_SB_T0_
FNL:6,1851,1858
FNA:6,0,_ZSt27__unguarded_partition_pivotIN9__gnu_cxx17__normal_iteratorIPSt5tupleIJiiiEESt6vectorIS3_SaIS3_EEEENS0_5__ops15_Iter_less_iterEET_SB_SB_T0_
FNL:7,1863,1870
FNA:7,0,_ZSt14__partial_sortIN9__gnu_cxx17__normal_iteratorIPSt5tupleIJiiiEESt6vectorIS3_SaIS3_EEEENS0_5__ops15_Iter_less_iterEEvT_SB_SB_T0_
FNL:8,1876,1893
FNA:8,3,_ZSt16__introsort_loopIN9__gnu_cxx17__normal_iteratorIPSt5tupleIJiiiEESt6vectorIS3_SaIS3_EEEElNS0_5__ops15_Iter_less_iterEEvT_SB_T0_T1_
FNL:9,1900,1910
FNA:9,3,_ZSt6__sortIN9__gnu_cxx17__normal_iteratorIPSt5tupleIJiiiEESt6vectorIS3_SaIS3_EEEENS0_5__ops15_Iter_less_iterEEvT_SB_T0_
FNL:10,4762,4773
FNA:10,3,_ZSt4sortIN9__gnu_cxx17__normal_iteratorIPSt5tupleIJiiiEESt6vectorIS3_SaIS3_EEEEEvT_S9_
FNL:11,85,103
FNA:11,0,_ZSt22__move_median_to_firstIN9__gnu_cxx17__normal_iteratorIPSt5tupleIJiiiEESt6vectorIS3_SaIS3_EEEENS0_5__ops15_Iter_less_iterEEvT_SB_SB_SB_T0_
FNF:12
FNH:6
DA:85,0
DA:88,0
DA:90,0
DA:91,0
DA:92,0
DA:93,0
DA:95,0
DA:97,0
DA:98,0
DA:99,0
DA:100,0
DA:102,0
DA:103,0
DA:1589,0
DA:1593,0
DA:1594,0
DA:1595,0
DA:1596,0
DA:1597,0
DA:1750,10
DA:1754,10
DA:1755,10
DA:1756,10
DA:1757,11
DA:1759,1
DA:1760,1
DA:1761,1
DA:1763,10
DA:1764,10
DA:1770,3
DA:1773,3
DA:1775,14
DA:1777,11
DA:1780,1
DA:1781,1
DA:1782,1
DA:1785,10
DA:1786,10
DA:1794,0
DA:1797,0
DA:1798,0
DA:1799,0
DA:1800,0
DA:1812,3
DA:1815,3
DA:1817,0
DA:1818,0
DA:1822,3
DA:1823,3
DA:1829,0
DA:1835,0
DA:1836,0
DA:1837,0
DA:1838,0
DA:1839,0
DA:1840,0
DA:1841,0
DA:1842,0
DA:1843,0
DA:1851,0
DA:1854,0
DA:1855,0
DA:1857,0
DA:1863,0
DA:1868,0
DA:1869,0
DA:1870,0
DA:1876,3
DA:1880,3
DA:1882,0
DA:1884,0
DA:1885,0
DA:1887,0
DA:1889,0
DA:1890,0
DA:1891,0
DA:1900,3
DA:1903,3
DA:1905,3
DA:1906,3
DA:1908,3
DA:1910,3
DA:4762,3
DA:4772,3
DA:4773,3
LF:85
LH:34
end_of_record
TN:
SF:/usr/include/c++/14/bits/stl_algobase.h
FNL:0,1022,1030
FNA:0,6,_ZSt4fillIN9__gnu_cxx17__normal_iteratorIPiSt6vectorIiSaIiEEEEiEvT_S7_RKT0_
FNA:0,0,_ZSt4fillISt13_Bit_iteratorbEvT_S1_RKT0_
FNL:1,1042,1042
FNA:1,9,_ZSt17__size_to_integerm
FNL:2,1143,1156
FNA:2,9,_ZSt10__fill_n_aIPimiET_S1_T0_RKT1_St26random_access_iterator_tag
FNL:3,1178,1185
FNA:3,9,_ZSt6fill_nIPimiET_S1_T0_RKT1_
FNL:4,1547,1563
FNA:4,3,_ZSt4__lgIlET_S0_
FNL:5,155,187
FNA:5,0,_ZSt9iter_swapIN9__gnu_cxx17__normal_iteratorIPSt5tupleIJiiiEESt6vectorIS3_SaIS3_EEEES8_EvT_T0_
FNL:6,233,241
FNA:6,14,_ZSt3minIiERKT_S2_S2_
FNA:6,205,_ZSt3minImERKT_S2_S2_
FNL:7,257,265
FNA:7,7,_ZSt3maxIiERKT_S2_S2_
FNA:7,100,_ZSt3maxImERKT_S2_S2_
FNL:8,316,318
FNA:8,861,_ZSt12__niter_baseIPN9GraphAlgo4EdgeEET_S3_
FNA:8,0,_ZSt12__niter_baseIPP12PipelineDataET_S3_
FNA:8,0,_ZSt12__niter_baseIPPiET_S2_
FNA:8,34,_ZSt12__niter_baseIPSt5tupleIJiiiEEET_S3_
FNA:8,0,_ZSt12__niter_baseIPSt6vectorIN9GraphAlgo4EdgeESaIS2_EEET_S6_
FNA:8,18,_ZSt12__niter_baseIPSt6vectorIiSaIiEEET_S4_
FNA:8,93,_ZSt12__niter_baseIPiET_S1_
FNA:8,0,_ZSt12__niter_baseIPmET_S1_
FNA:8,0,_ZSt12__niter_baseISt13_Bit_iteratorET_S1_
FNA:8,0,_ZSt12__niter_baseISt19_Bit_const_iteratorET_S1_
FNL:9,346,347
FNA:9,0,_ZSt12__niter_wrapIN9__gnu_cxx17__normal_iteratorIPN9GraphAlgo4EdgeESt6vectorIS3_SaIS3_EEEES4_ET_S9_T0_
FNA:9,1,_ZSt12__niter_wrapIN9__gnu_cxx17__normal_iteratorIPSt5tupleIJiiiEESt6vectorIS3_SaIS3_EEEES4_ET_S9_T0_
FNA:9,0,_ZSt12__niter_wrapIN9__gnu_cxx17__normal_iteratorIPSt6vectorIN9GraphAlgo4EdgeESaIS4_EES2_IS6_SaIS6_EEEES7_ET_SB_T0_
FNA:9,0,_ZSt12__niter_wrapIN9__gnu_cxx17__normal_iteratorIPiSt6vectorIiSaIiEEEES2_ET_S7_T0_
FNL:10,353,354
FNA:10,0,_ZSt12__niter_wrapIPN9GraphAlgo4EdgeEET_RKS3_S3_
FNA:10,0,_ZSt12__niter_wrapIPP12PipelineDataET_RKS3_S3_
FNA:10,0,_ZSt12__niter_wrapIPPiET_RKS2_S2_
FNA:10,0,_ZSt12__niter_wrapIPSt6vectorIN9GraphAlgo4EdgeESaIS2_EEET_RKS6_S6_
FNA:10,27,_ZSt12__niter_wrapIPiET_RKS1_S1_
FNA:10,0,_ZSt12__niter_wrapIPmET_RKS1_S1_
FNA:10,0,_ZSt12__niter_wrapISt13_Bit_iteratorET_RKS1_S1_
FNL:11,398,408
FNA:11,0,_ZNSt11__copy_moveILb0ELb0ESt26random_access_iterator_tagE8__copy_mIPKSt6vectorIN9GraphAlgo4EdgeESaIS5_EEPS7_EET0_T_SC_SB_
FNA:11,0,_ZNSt11__copy_moveILb0ELb0ESt26random_access_iterator_tagE8__copy_mIPSt6vectorIN9GraphAlgo4EdgeESaIS5_EES8_EET0_T_SA_S9_
FNA:11,0,_ZNSt11__copy_moveILb0ELb0ESt26random_access_iterator_tagE8__copy_mISt13_Bit_iteratorS3_EET0_T_S5_S4_
FNA:11,0,_ZNSt11__copy_moveILb0ELb0ESt26random_access_iterator_tagE8__copy_mISt19_Bit_const_iteratorSt13_Bit_iteratorEET0_T_S6_S5_
FNL:12,412,413
FNA:12,0,_ZNSt11__copy_moveILb0ELb0ESt26random_access_iterator_tagE12__assign_oneIN9GraphAlgo4EdgeEKS4_EEvPT_PT0_
FNA:12,0,_ZNSt11__copy_moveILb0ELb0ESt26random_access_iterator_tagE12__assign_oneIN9GraphAlgo4EdgeES4_EEvPT_PT0_
FNA:12,0,_ZNSt11__copy_moveILb0ELb0ESt26random_access_iterator_tagE12__assign_oneIP12PipelineDataS4_EEvPT_PT0_
FNA:12,0,_ZNSt11__copy_moveILb0ELb0ESt26random_access_iterator_tagE12__assign_oneIPiS3_EEvPT_PT0_
FNA:12,5,_ZNSt11__copy_moveILb0ELb0ESt26random_access_iterator_tagE12__assign_oneIiKiEEvPT_PT0_
FNA:12,0,_ZNSt11__copy_moveILb0ELb0ESt26random_access_iterator_tagE12__assign_oneIiiEEvPT_PT0_
FNA:12,0,_ZNSt11__copy_moveILb0ELb0ESt26random_access_iterator_tagE12__assign_oneImmEEvPT_PT0_
FNL:13,448,457
FNA:13,0,_ZNSt11__copy_moveILb0ELb1ESt26random_access_iterator_tagE8__copy_mIKN9GraphAlgo4EdgeES4_EEPT0_PT_S9_S7_
FNA:13,27,_ZNSt11__copy_moveILb0ELb1ESt26random_access_iterator_tagE8__copy_mIKiiEEPT0_PT_S7_S5_
FNA:13,0,_ZNSt11__copy_moveILb0ELb1ESt26random_access_iterator_tagE8__copy_mIN9GraphAlgo4EdgeES4_EEPT0_PT_S8_S6_
FNA:13,0,_ZNSt11__copy_moveILb0ELb1ESt26random_access_iterator_tagE8__copy_mIP12PipelineDataS4_EEPT0_PT_S8_S6_
FNA:13,0,_ZNSt11__copy_moveILb0ELb1ESt26random_access_iterator_tagE8__copy_mIPiS3_EEPT0_PT_S7_S5_
FNA:13,0,_ZNSt11__copy_moveILb0ELb1ESt26random_access_iterator_tagE8__copy_mIiiEEPT0_PT_S6_S4_
FNA:13,0,_ZNSt11__copy_moveILb0ELb1ESt26random_access_iterator_tagE8__copy_mImmEEPT0_PT_S6_S4_
FNL:14,512,522
FNA:14,0,_ZSt14__copy_move_a2ILb0EPKN9GraphAlgo4EdgeEPS1_ET1_T0_S6_S5_
FNA:14,0,_ZSt14__copy_move_a2ILb0EPKSt6vectorIN9GraphAlgo4EdgeESaIS2_EEPS4_ET1_T0_S9_S8_
FNA:14,27,_ZSt14__copy_move_a2ILb0EPKiPiET1_T0_S4_S3_
FNA:14,0,_ZSt14__copy_move_a2ILb0EPN9GraphAlgo4EdgeES2_ET1_T0_S4_S3_
FNA:14,0,_ZSt14__copy_move_a2ILb0EPP12PipelineDataS2_ET1_T0_S4_S3_
FNA:14,0,_ZSt14__copy_move_a2ILb0EPPiS1_ET1_T0_S3_S2_
FNA:14,0,_ZSt14__copy_move_a2ILb0EPSt6vectorIN9GraphAlgo4EdgeESaIS2_EES5_ET1_T0_S7_S6_
FNA:14,0,_ZSt14__copy_move_a2ILb0EPiS0_ET1_T0_S2_S1_
FNA:14,0,_ZSt14__copy_move_a2ILb0EPmS0_ET1_T0_S2_S1_
FNA:14,0,_ZSt14__copy_move_a2ILb0ESt13_Bit_iteratorS0_ET1_T0_S2_S1_
FNA:14,0,_ZSt14__copy_move_a2ILb0ESt19_Bit_const_iteratorSt13_Bit_iteratorET1_T0_S3_S2_
FNL:15,547,548
FNA:15,0,_ZSt14__copy_move_a1ILb0EPKN9GraphAlgo4EdgeEPS1_ET1_T0_S6_S5_
FNA:15,0,_ZSt14__copy_move_a1ILb0EPKSt6vectorIN9GraphAlgo4EdgeESaIS2_EEPS4_ET1_T0_S9_S8_
FNA:15,27,_ZSt14__copy_move_a1ILb0EPKiPiET1_T0_S4_S3_
FNA:15,0,_ZSt14__copy_move_a1ILb0EPN9GraphAlgo4EdgeES2_ET1_T0_S4_S3_
FNA:15,0,_ZSt14__copy_move_a1ILb0EPP12PipelineDataS2_ET1_T0_S4_S3_
FNA:15,0,_ZSt14__copy_move_a1ILb0EPPiS1_ET1_T0_S3_S2_
FNA:15,0,_ZSt14__copy_move_a1ILb0EPSt6vectorIN9GraphAlgo4EdgeESaIS2_EES5_ET1_T0_S7_S6_
FNA:15,0,_ZSt14__copy_move_a1ILb0EPiS0_ET1_T0_S2_S1_
FNA:15,0,_ZSt14__copy_move_a1ILb0EPmS0_ET1_T0_S2_S1_
FNA:15,0,_ZSt14__copy_move_a1ILb0ESt13_Bit_iteratorS0_ET1_T0_S2_S1_
FNA:15,0,_ZSt14__copy_move_a1ILb0ESt19_Bit_const_iteratorSt13_Bit_iteratorET1_T0_S3_S2_
FNL:16,553,559
FNA:16,0,_ZSt13__copy_move_aILb0EN9__gnu_cxx17__normal_iteratorIPKN9GraphAlgo4EdgeESt6vectorIS3_SaIS3_EEEENS1_IPS3_S8_EEET1_T0_SD_SC_
FNA:16,0,_ZSt13__copy_move_aILb0EN9__gnu_cxx17__normal_iteratorIPKSt6vectorIN9GraphAlgo4EdgeESaIS4_EES2_IS6_SaIS6_EEEENS1_IPS6_SA_EEET1_T0_SF_SE_
FNA:16,0,_ZSt13__copy_move_aILb0EN9__gnu_cxx17__normal_iteratorIPKiSt6vectorIiSaIiEEEENS1_IPiS6_EEET1_T0_SB_SA_
FNA:16,27,_ZSt13__copy_move_aILb0EN9__gnu_cxx17__normal_iteratorIPKiSt6vectorIiSaIiEEEEPiET1_T0_SA_S9_
FNA:16,0,_ZSt13__copy_move_aILb0EPN9GraphAlgo4EdgeES2_ET1_T0_S4_S3_
FNA:16,0,_ZSt13__copy_move_aILb0EPP12PipelineDataS2_ET1_T0_S4_S3_
FNA:16,0,_ZSt13__copy_move_aILb0EPPiS1_ET1_T0_S3_S2_
FNA:16,0,_ZSt13__copy_move_aILb0EPSt6vectorIN9GraphAlgo4EdgeESaIS2_EES5_ET1_T0_S7_S6_
FNA:16,0,_ZSt13__copy_move_aILb0EPiS0_ET1_T0_S2_S1_
FNA:16,0,_ZSt13__copy_move_aILb0EPmS0_ET1_T0_S2_S1_
FNA:16,0,_ZSt13__copy_move_aILb0ESt13_Bit_iteratorS0_ET1_T0_S2_S1_
FNA:16,0,_ZSt13__copy_move_aILb0ESt19_Bit_const_iteratorSt13_Bit_iteratorET1_T0_S3_S2_
FNL:17,642,652
FNA:17,0,_ZSt4copyIN9__gnu_cxx17__normal_iteratorIPKN9GraphAlgo4EdgeESt6vectorIS3_SaIS3_EEEENS1_IPS3_S8_EEET0_T_SD_SC_
FNA:17,0,_ZSt4copyIN9__gnu_cxx17__normal_iteratorIPKSt6vectorIN9GraphAlgo4EdgeESaIS4_EES2_IS6_SaIS6_EEEENS1_IPS6_SA_EEET0_T_SF_SE_
FNA:17,0,_ZSt4copyIN9__gnu_cxx17__normal_iteratorIPKiSt6vectorIiSaIiEEEENS1_IPiS6_EEET0_T_SB_SA_
FNA:17,27,_ZSt4copyIN9__gnu_cxx17__normal_iteratorIPKiSt6vectorIiSaIiEEEEPiET0_T_SA_S9_
FNA:17,0,_ZSt4copyIPN9GraphAlgo4EdgeES2_ET0_T_S4_S3_
FNA:17,0,_ZSt4copyIPP12PipelineDataS2_ET0_T_S4_S3_
FNA:17,0,_ZSt4copyIPPiS1_ET0_T_S3_S2_
FNA:17,0,_ZSt4copyIPSt6vectorIN9GraphAlgo4EdgeESaIS2_EES5_ET0_T_S7_S6_
FNA:17,0,_ZSt4copyIPiS0_ET0_T_S2_S1_
FNA:17,0,_ZSt4copyIPmS0_ET0_T_S2_S1_
FNA:17,0,_ZSt4copyISt13_Bit_iteratorS0_ET0_T_S2_S1_
FNA:17,0,_ZSt4copyISt19_Bit_const_iteratorSt13_Bit_iteratorET0_T_S3_S2_
FNL:18,728,735
FNA:18,0,_ZNSt20__copy_move_backwardILb0ELb0ESt26random_access_iterator_tagE13__copy_move_bISt13_Bit_iteratorS3_EET0_T_S5_S4_
FNL:19,745,752
FNA:19,1,_ZNSt20__copy_move_backwardILb1ELb0ESt26random_access_iterator_tagE13__copy_move_bIPSt5tupleIJiiiEES5_EET0_T_S7_S6_
FNL:20,762,771
FNA:20,0,_ZNSt20__copy_move_backwardILb0ELb1ESt26random_access_iterator_tagE13__copy_move_bIP12PipelineDataS4_EEPT0_PT_S8_S6_
FNA:20,0,_ZNSt20__copy_move_backwardILb0ELb1ESt26random_access_iterator_tagE13__copy_move_bIPiS3_EEPT0_PT_S7_S5_
FNL:21,777,790
FNA:21,0,_ZSt23__copy_move_backward_a2ILb0EPP12PipelineDataS2_ET1_T0_S4_S3_
FNA:21,0,_ZSt23__copy_move_backward_a2ILb0EPPiS1_ET1_T0_S3_S2_
FNA:21,0,_ZSt23__copy_move_backward_a2ILb0ESt13_Bit_iteratorS0_ET1_T0_S2_S1_
FNA:21,1,_ZSt23__copy_move_backward_a2ILb1EPSt5tupleIJiiiEES2_ET1_T0_S4_S3_
FNL:22,795,796
FNA:22,0,_ZSt23__copy_move_backward_a1ILb0EPP12PipelineDataS2_ET1_T0_S4_S3_
FNA:22,0,_ZSt23__copy_move_backward_a1ILb0EPPiS1_ET1_T0_S3_S2_
FNA:22,0,_ZSt23__copy_move_backward_a1ILb0ESt13_Bit_iteratorS0_ET1_T0_S2_S1_
FNA:22,1,_ZSt23__copy_move_backward_a1ILb1EPSt5tupleIJiiiEES2_ET1_T0_S4_S3_
FNL:23,823,829
FNA:23,0,_ZSt22__copy_move_backward_aILb0EPP12PipelineDataS2_ET1_T0_S4_S3_
FNA:23,0,_ZSt22__copy_move_backward_aILb0EPPiS1_ET1_T0_S3_S2_
FNA:23,0,_ZSt22__copy_move_backward_aILb0ESt13_Bit_iteratorS0_ET1_T0_S2_S1_
FNA:23,1,_ZSt22__copy_move_backward_aILb1EN9__gnu_cxx17__normal_iteratorIPSt5tupleIJiiiEESt6vectorIS3_SaIS3_EEEES8_ET1_T0_SA_S9_
FNL:24,878,889
FNA:24,0,_ZSt13copy_backwardIPP12PipelineDataS2_ET0_T_S4_S3_
FNA:24,0,_ZSt13copy_backwardIPPiS1_ET0_T_S3_S2_
FNA:24,0,_ZSt13copy_backwardISt13_Bit_iteratorS0_ET0_T_S2_S1_
FNL:25,913,925
FNA:25,1,_ZSt13move_backwardIN9__gnu_cxx17__normal_iteratorIPSt5tupleIJiiiEESt6vectorIS3_SaIS3_EEEES8_ET0_T_SA_S9_
FNL:26,947,953
FNA:26,15,_ZSt9__fill_a1IPiiEN9__gnu_cxx11__enable_ifIXsrSt11__is_scalarIT0_E7__valueEvE6__typeET_S8_RKS4_
FNL:27,978,981
FNA:27,6,_ZSt9__fill_a1IPiSt6vectorIiSaIiEEiEvN9__gnu_cxx17__normal_iteratorIT_T0_EES8_RKT1_
FNL:28,997,998
FNA:28,6,_ZSt8__fill_aIN9__gnu_cxx17__normal_iteratorIPiSt6vectorIiSaIiEEEEiEvT_S7_RKT0_
FNA:28,9,_ZSt8__fill_aIPiiEvT_S1_RKT0_
FNA:28,0,_ZSt8__fill_aISt13_Bit_iteratorbEvT_S1_RKT0_
FNF:29
FNH:24
DA:155,0
DA:185,0
DA:187,0
DA:233,219
DA:238,219
DA:239,12
DA:240,207
DA:257,107
DA:262,107
DA:263,44
DA:264,63
DA:316,1006
DA:318,1006
DA:346,1
DA:347,1
DA:353,27
DA:354,27
DA:398,0
DA:401,0
DA:403,0
DA:404,0
DA:405,0
DA:407,0
DA:412,5
DA:413,5
DA:448,27
DA:450,27
DA:451,27
DA:452,22
DA:453,5
DA:455,5
DA:456,27
DA:512,27
DA:521,27
DA:547,27
DA:548,27
DA:553,27
DA:555,27
DA:558,27
DA:642,27
DA:651,27
DA:728,0
DA:731,0
DA:732,0
DA:733,0
DA:734,0
DA:745,1
DA:748,1
DA:749,2
DA:750,1
DA:751,1
DA:762,0
DA:764,0
DA:765,0
DA:766,0
DA:767,0
DA:769,0
DA:770,0
DA:777,1
DA:787,1
DA:789,1
DA:795,1
DA:796,1
DA:823,1
DA:825,1
DA:828,1
DA:878,0
DA:888,0
DA:913,1
DA:922,1
DA:924,1
DA:947,15
DA:950,15
DA:951,84
DA:952,69
DA:953,15
DA:978,6
DA:981,6
DA:997,15
DA:998,15
DA:1022,6
DA:1029,6
DA:1030,6
DA:1042,9
DA:1143,9
DA:1149,9
DA:1150,0
DA:1154,9
DA:1155,9
DA:1178,9
DA:1183,9
DA:1184,18
DA:1547,3
DA:1550,3
LF:94
LH:70
end_of_record
TN:
SF:/usr/include/c++/14/bits/stl_bvector.h
FNL:0,1000,1001
FNA:0,3,_ZNKSt6vectorIbSaIbEE5beginEv
FNL:1,1005,1006
FNA:1,0,_ZNSt6vectorIbSaIbEE3endEv
FNL:2,1010,1011
FNA:2,3,_ZNKSt6vectorIbSaIbEE3endEv
FNL:3,1036,1037
FNA:3,0,_ZNKSt6vectorIbSaIbEE6cbeginEv
FNL:4,104,111
FNA:4,30,_ZNSt14_Bit_referenceaSEb
FNL:5,1057,1058
FNA:5,3,_ZNKSt6vectorIbSaIbEE4sizeEv
FNL:6,1062,1071
FNA:6,0,_ZNKSt6vectorIbSaIbEE8max_sizeEv
FNL:7,1075,1077
FNA:7,0,_ZNKSt6vectorIbSaIbEE8capacityEv
FNL:8,1086,1087
FNA:8,108,_ZNSt6vectorIbSaIbEEixEm
FNL:9,1239,1244
FNA:9,0,_ZNSt6vectorIbSaIbEE6insertESt19_Bit_const_iteratormRKb
FNL:10,127,128
FNA:10,0,_ZNSt14_Bit_referenceaSERKS_
FNL:11,1339,1345
FNA:11,0,_ZNSt6vectorIbSaIbEE15_M_copy_alignedESt19_Bit_const_iteratorS2_St13_Bit_iterator
FNL:12,1349,1359
FNA:12,3,_ZNSt6vectorIbSaIbEE13_M_initializeEm
FNL:13,1363,1367
FNA:13,6,_ZNSt6vectorIbSaIbEE19_M_initialize_valueEb
FNL:14,1436,1448
FNA:14,3,_ZNSt6vectorIbSaIbEE14_M_fill_assignEmb
FNL:15,1530,1537
FNA:15,0,_ZNKSt6vectorIbSaIbEE12_M_check_lenEmPKc
FNL:16,1541,1542
FNA:16,3,_ZNSt6vectorIbSaIbEE15_M_erase_at_endESt13_Bit_iterator
FNL:17,1570,1581
FNA:17,0,_ZSt14__fill_bvectorPmjjb
FNL:18,1587,1598
FNA:18,6,_ZSt16__fill_bvector_nPmmb
FNL:19,1603,1619
FNA:19,0,_ZSt9__fill_a1St13_Bit_iteratorS_RKb
FNL:20,195,196
FNA:20,132,_ZNSt18_Bit_iterator_baseC2EPmj
FNL:21,200,208
FNA:21,0,_ZNSt18_Bit_iterator_base10_M_bump_upEv
FNL:22,212,220
FNA:22,0,_ZNSt18_Bit_iterator_base12_M_bump_downEv
FNL:23,224,236
FNA:23,114,_ZNSt18_Bit_iterator_base7_M_incrEl
FNL:24,292,298
FNA:24,3,_ZStmiRKSt18_Bit_iterator_baseS1_
FNL:25,313,313
FNA:25,12,_ZNSt13_Bit_iteratorC2Ev
FNL:26,316,317
FNA:26,114,_ZNSt13_Bit_iteratorC2EPmj
FNL:27,326,330
FNA:27,108,_ZNKSt13_Bit_iteratordeEv
FNL:28,334,338
FNA:28,0,_ZNSt13_Bit_iteratorppEv
FNL:29,351,355
FNA:29,0,_ZNSt13_Bit_iteratormmEv
FNL:30,368,372
FNA:30,114,_ZNSt13_Bit_iteratorpLEl
FNL:31,384,385
FNA:31,108,_ZNKSt13_Bit_iteratorixEl
FNL:32,389,394
FNA:32,114,_ZStplRKSt13_Bit_iteratorl
FNL:33,426,427
FNA:33,3,_ZNSt19_Bit_const_iteratorC2EPmj
FNL:34,430,431
FNA:34,3,_ZNSt19_Bit_const_iteratorC2ERKSt13_Bit_iterator
FNL:35,435,436
FNA:35,0,_ZNKSt19_Bit_const_iterator13_M_const_castEv
FNL:36,440,444
FNA:36,0,_ZNKSt19_Bit_const_iteratordeEv
FNL:37,448,452
FNA:37,0,_ZNSt19_Bit_const_iteratorppEv
FNL:38,551,553
FNA:38,6,_ZNSt13_Bvector_baseISaIbEE18_Bvector_impl_dataC2Ev
FNL:39,577,578
FNA:39,3,_ZNSt13_Bvector_baseISaIbEE18_Bvector_impl_data8_M_resetEv
FNL:40,603,605
FNA:40,3,_ZNSt13_Bvector_baseISaIbEE13_Bvector_implC2ERKSaImE
FNL:41,623,628
FNA:41,9,_ZNKSt13_Bvector_baseISaIbEE13_Bvector_impl11_M_end_addrEv
FNL:42,641,642
FNA:42,0,_ZNKSt13_Bvector_baseISaIbEE20_M_get_Bit_allocatorEv
FNL:43,656,657
FNA:43,3,_ZNSt13_Bvector_baseISaIbEEC2ERKS0_
FNL:44,669,670
FNA:44,3,_ZNSt13_Bvector_baseISaIbEED2Ev
FNL:45,677,689
FNA:45,3,_ZNSt13_Bvector_baseISaIbEE11_M_allocateEm
FNL:46,693,703
FNA:46,3,_ZNSt13_Bvector_baseISaIbEE13_M_deallocateEv
FNL:47,714,715
FNA:47,6,_ZNSt13_Bvector_baseISaIbEE8_S_nwordEm
FNL:48,795,806
FNA:48,3,_ZNSt6vectorIbSaIbEEC2EmRKbRKS0_
FNL:49,88,89
FNA:49,108,_ZNSt14_Bit_referenceC2EPmm
FNL:50,890,890
FNA:50,3,_ZNSt6vectorIbSaIbEED2Ev
FNL:51,965,966
FNA:51,3,_ZNSt6vectorIbSaIbEE6assignEmRKb
FNL:52,99,100
FNA:52,78,_ZNKSt14_Bit_referencecvbEv
FNL:53,995,996
FNA:53,111,_ZNSt6vectorIbSaIbEE5beginEv
FNF:54
FNH:36
DA:88,108
DA:89,108
DA:99,78
DA:100,78
DA:104,30
DA:106,30
DA:107,30
DA:109,0
DA:110,30
DA:127,0
DA:128,0
DA:189,228
DA:190,3
DA:192,228
DA:195,132
DA:196,132
DA:200,0
DA:203,0
DA:205,0
DA:206,0
DA:208,0
DA:212,0
DA:215,0
DA:217,0
DA:218,0
DA:220,0
DA:224,114
DA:227,114
DA:228,114
DA:229,114
DA:230,114
DA:232,0
DA:233,0
DA:235,114
DA:236,114
DA:292,3
DA:296,3
DA:297,3
DA:313,12
DA:316,114
DA:317,114
DA:326,108
DA:328,108
DA:329,108
DA:334,0
DA:336,0
DA:337,0
DA:351,0
DA:353,0
DA:354,0
DA:368,114
DA:370,114
DA:371,114
DA:384,108
DA:385,108
DA:389,114
DA:391,114
DA:392,114
DA:393,114
DA:426,3
DA:427,3
DA:430,3
DA:431,3
DA:435,0
DA:436,0
DA:440,0
DA:442,0
DA:443,0
DA:448,0
DA:450,0
DA:451,0
DA:551,6
DA:552,6
DA:553,6
DA:577,3
DA:578,3
DA:603,3
DA:604,3
DA:605,3
DA:623,9
DA:625,9
DA:626,9
DA:627,0
DA:641,0
DA:642,0
DA:656,3
DA:657,6
DA:669,3
DA:670,3
DA:677,3
DA:679,3
DA:688,3
DA:693,3
DA:695,3
DA:697,3
DA:698,3
DA:699,3
DA:701,3
DA:703,3
DA:714,6
DA:715,6
DA:795,3
DA:802,3
DA:804,3
DA:805,3
DA:806,3
DA:890,3
DA:965,3
DA:966,3
DA:995,111
DA:996,111
DA:1000,3
DA:1001,3
DA:1005,0
DA:1006,0
DA:1010,3
DA:1011,3
DA:1036,0
DA:1037,0
DA:1057,3
DA:1058,3
DA:1062,0
DA:1064,0
DA:1068,0
DA:1070,0
DA:1075,0
DA:1076,0
DA:1077,0
DA:1086,108
DA:1087,108
DA:1239,0
DA:1241,0
DA:1242,0
DA:1243,0
DA:1339,0
DA:1342,0
DA:1343,0
DA:1344,0
DA:1349,3
DA:1351,3
DA:1353,3
DA:1354,3
DA:1355,3
DA:1356,3
DA:1357,3
DA:1359,3
DA:1363,6
DA:1365,6
DA:1366,6
DA:1367,6
DA:1436,3
DA:1438,3
DA:1440,0
DA:1441,0
DA:1445,3
DA:1446,3
DA:1448,3
DA:1530,0
DA:1532,0
DA:1533,0
DA:1535,0
DA:1536,0
DA:1541,3
DA:1542,3
DA:1570,0
DA:1573,0
DA:1574,0
DA:1575,0
DA:1577,0
DA:1578,0
DA:1580,0
DA:1581,0
DA:1587,6
DA:1597,6
DA:1598,6
DA:1603,0
DA:1606,0
DA:1608,0
DA:1609,0
DA:1610,0
DA:1612,0
DA:1614,0
DA:1615,0
DA:1617,0
DA:1618,0
DA:1619,0
LF:186
LH:109
end_of_record
TN:
SF:/usr/include/c++/14/bits/stl_construct.h
FNL:0,109,120
FNA:0,1540,_ZSt10_ConstructIN9GraphAlgo4EdgeEJRKS1_EEvPT_DpOT0_
FNA:0,0,_ZSt10_ConstructIN9GraphAlgo4EdgeEJRS1_EEvPT_DpOT0_
FNA:0,15,_ZSt10_ConstructISt3setIiSt4lessIiESaIiEEJEEvPT_DpOT0_
FNA:0,211,_ZSt10_ConstructISt6vectorIN9GraphAlgo4EdgeESaIS2_EEJEEvPT_DpOT0_
FNA:0,1067,_ZSt10_ConstructISt6vectorIN9GraphAlgo4EdgeESaIS2_EEJRKS4_EEvPT_DpOT0_
FNA:0,0,_ZSt10_ConstructISt6vectorIN9GraphAlgo4EdgeESaIS2_EEJRS4_EEvPT_DpOT0_
FNA:0,15,_ZSt10_ConstructISt6vectorIiSaIiEEJRKS2_EEvPT_DpOT0_
FNA:0,6,_ZSt10_ConstructIiJEEvPT_DpOT0_
FNL:1,146,153
FNA:1,0,_ZSt8_DestroyI12PipelineDataEvPT_
FNA:1,15,_ZSt8_DestroyISt3setIiSt4lessIiESaIiEEEvPT_
FNA:1,195,_ZSt8_DestroyISt6vectorIN9GraphAlgo4EdgeESaIS2_EEEvPT_
FNA:1,22,_ZSt8_DestroyISt6vectorIiSaIiEEEvPT_
FNL:2,160,164
FNA:2,0,_ZNSt12_Destroy_auxILb0EE9__destroyIN9__gnu_cxx17__normal_iteratorIPSt6vectorIN9GraphAlgo4EdgeESaIS6_EES4_IS8_SaIS8_EEEEEEvT_SD_
FNA:2,4,_ZNSt12_Destroy_auxILb0EE9__destroyIP12PipelineDataEEvT_S4_
FNA:2,3,_ZNSt12_Destroy_auxILb0EE9__destroyIPSt3setIiSt4lessIiESaIiEEEEvT_S8_
FNA:2,54,_ZNSt12_Destroy_auxILb0EE9__destroyIPSt6vectorIN9GraphAlgo4EdgeESaIS4_EEEEvT_S8_
FNA:2,6,_ZNSt12_Destroy_auxILb0EE9__destroyIPSt6vectorIiSaIiEEEEvT_S6_
FNL:3,172,172
FNA:3,0,_ZNSt12_Destroy_auxILb1EE9__destroyIN9__gnu_cxx17__normal_iteratorIPN9GraphAlgo4EdgeESt6vectorIS5_SaIS5_EEEEEEvT_SB_
FNA:3,0,_ZNSt12_Destroy_auxILb1EE9__destroyIN9__gnu_cxx17__normal_iteratorIPiSt6vectorIiSaIiEEEEEEvT_S9_
FNA:3,195,_ZNSt12_Destroy_auxILb1EE9__destroyIPN9GraphAlgo4EdgeEEEvT_S5_
FNA:3,3,_ZNSt12_Destroy_auxILb1EE9__destroyIPSt5tupleIJiiiEEEEvT_S5_
FNA:3,53,_ZNSt12_Destroy_auxILb1EE9__destroyIPiEEvT_S3_
FNL:4,182,197
FNA:4,0,_ZSt8_DestroyIN9__gnu_cxx17__normal_iteratorIPN9GraphAlgo4EdgeESt6vectorIS3_SaIS3_EEEEEvT_S9_
FNA:4,0,_ZSt8_DestroyIN9__gnu_cxx17__normal_iteratorIPSt6vectorIN9GraphAlgo4EdgeESaIS4_EES2_IS6_SaIS6_EEEEEvT_SB_
FNA:4,0,_ZSt8_DestroyIN9__gnu_cxx17__normal_iteratorIPiSt6vectorIiSaIiEEEEEvT_S7_
FNA:4,4,_ZSt8_DestroyIP12PipelineDataEvT_S2_
FNA:4,195,_ZSt8_DestroyIPN9GraphAlgo4EdgeEEvT_S3_
FNA:4,3,_ZSt8_DestroyIPSt3setIiSt4lessIiESaIiEEEvT_S6_
FNA:4,3,_ZSt8_DestroyIPSt5tupleIJiiiEEEvT_S3_
FNA:4,54,_ZSt8_DestroyIPSt6vectorIN9GraphAlgo4EdgeESaIS2_EEEvT_S6_
FNA:4,6,_ZSt8_DestroyIPSt6vectorIiSaIiEEEvT_S4_
FNA:4,53,_ZSt8_DestroyIPiEvT_S1_
FNF:5
FNH:5
DA:109,2854
DA:119,2854
DA:120,2854
DA:146,232
DA:151,232
DA:153,232
DA:160,67
DA:162,299
DA:163,232
DA:164,67
DA:172,251
DA:182,318
DA:196,318
DA:197,318
LF:14
LH:14
end_of_record
TN:
SF:/usr/include/c++/14/bits/stl_deque.h
FNL:0,1027,1028
FNA:0,4,_ZNSt5dequeI12PipelineDataSaIS0_EED2Ev
FNA:0,9,_ZNSt5dequeIiSaIiEED2Ev
FNL:1,1151,1152
FNA:1,20,_ZNSt5dequeI12PipelineDataSaIS0_EE5beginEv
FNA:1,22,_ZNSt5dequeIiSaIiEE5beginEv
FNL:2,1170,1171
FNA:2,4,_ZNSt5dequeI12PipelineDataSaIS0_EE3endEv
FNA:2,24,_ZNSt5dequeIiSaIiEE3endEv
FNL:3,1268,1269
FNA:3,4,_ZNKSt5dequeI12PipelineDataSaIS0_EE4sizeEv
FNA:3,0,_ZNKSt5dequeIiSaIiEE4sizeEv
FNL:4,1274,1275
FNA:4,4,_ZNKSt5dequeI12PipelineDataSaIS0_EE8max_sizeEv
FNA:4,0,_ZNKSt5dequeIiSaIiEE8max_sizeEv
FNL:5,131,132
FNA:5,20,_ZNSt15_Deque_iteratorI12PipelineDataRS0_PS0_E14_S_buffer_sizeEv
FNA:5,18,_ZNSt15_Deque_iteratorIiRiPiE14_S_buffer_sizeEv
FNL:6,1347,1348
FNA:6,32,_ZNKSt5dequeI12PipelineDataSaIS0_EE5emptyEv
FNA:6,34,_ZNKSt5dequeIiSaIiEE5emptyEv
FNL:7,1444,1448
FNA:7,16,_ZNSt5dequeI12PipelineDataSaIS0_EE5frontEv
FNA:7,13,_ZNSt5dequeIiSaIiEE5frontEv
FNL:8,1468,1474
FNA:8,15,_ZNSt5dequeIiSaIiEE4backEv
FNL:9,151,152
FNA:9,8,_ZNSt15_Deque_iteratorI12PipelineDataRS0_PS0_EC2Ev
FNA:9,18,_ZNSt15_Deque_iteratorIiRiPiEC2Ev
FNL:10,1538,1549
FNA:10,16,_ZNSt5dequeI12PipelineDataSaIS0_EE9push_backERKS0_
FNA:10,30,_ZNSt5dequeIiSaIiEE9push_backERKi
FNL:11,1574,1586
FNA:11,16,_ZNSt5dequeI12PipelineDataSaIS0_EE9pop_frontEv
FNA:11,13,_ZNSt5dequeIiSaIiEE9pop_frontEv
FNL:12,1597,1609
FNA:12,15,_ZNSt5dequeIiSaIiEE8pop_backEv
FNL:13,168,170
FNA:13,32,_ZNSt15_Deque_iteratorI12PipelineDataRS0_PS0_EC2ERKS3_
FNA:13,46,_ZNSt15_Deque_iteratorIiRiPiEC2ERKS2_
FNL:14,181,182
FNA:14,16,_ZNKSt15_Deque_iteratorI12PipelineDataRS0_PS0_EdeEv
FNA:14,28,_ZNKSt15_Deque_iteratorIiRiPiEdeEv
FNL:15,1876,1881
FNA:15,4,_ZNSt5dequeI12PipelineDataSaIS0_EE11_S_max_sizeERKS1_
FNA:15,0,_ZNSt5dequeIiSaIiEE11_S_max_sizeERKS0_
FNL:16,2091,2096
FNA:16,4,_ZNSt5dequeI12PipelineDataSaIS0_EE15_M_destroy_dataESt15_Deque_iteratorIS0_RS0_PS0_ES6_RKS1_
FNA:16,9,_ZNSt5dequeIiSaIiEE15_M_destroy_dataESt15_Deque_iteratorIiRiPiES5_RKS0_
FNL:17,210,219
FNA:17,15,_ZNSt15_Deque_iteratorIiRiPiEmmEv
FNL:18,2172,2177
FNA:18,4,_ZNSt5dequeI12PipelineDataSaIS0_EE22_M_reserve_map_at_backEm
FNA:18,0,_ZNSt5dequeIiSaIiEE22_M_reserve_map_at_backEm
FNL:19,263,268
FNA:19,16,_ZNSt15_Deque_iteratorI12PipelineDataRS0_PS0_E11_M_set_nodeEPS2_
FNA:19,18,_ZNSt15_Deque_iteratorIiRiPiE11_M_set_nodeEPS1_
FNL:20,272,273
FNA:20,32,_ZSteqRKSt15_Deque_iteratorI12PipelineDataRS0_PS0_ES5_
FNA:20,34,_ZSteqRKSt15_Deque_iteratorIiRiPiES4_
FNL:21,370,376
FNA:21,4,_ZStmiRKSt15_Deque_iteratorI12PipelineDataRS0_PS0_ES5_
FNA:21,0,_ZStmiRKSt15_Deque_iteratorIiRiPiES4_
FNL:22,458,460
FNA:22,4,_ZNSt11_Deque_baseI12PipelineDataSaIS0_EEC2Ev
FNA:22,9,_ZNSt11_Deque_baseIiSaIiEEC2Ev
FNL:23,516,518
FNA:23,4,_ZNSt11_Deque_baseI12PipelineDataSaIS0_EE16_Deque_impl_dataC2Ev
FNA:23,9,_ZNSt11_Deque_baseIiSaIiEE16_Deque_impl_dataC2Ev
FNL:24,545,548
FNA:24,4,_ZNSt11_Deque_baseI12PipelineDataSaIS0_EE11_Deque_implC2Ev
FNA:24,9,_ZNSt11_Deque_baseIiSaIiEE11_Deque_implC2Ev
FNL:25,568,569
FNA:25,24,_ZNSt11_Deque_baseI12PipelineDataSaIS0_EE19_M_get_Tp_allocatorEv
FNA:25,37,_ZNSt11_Deque_baseIiSaIiEE19_M_get_Tp_allocatorEv
FNL:26,572,573
FNA:26,12,_ZNKSt11_Deque_baseI12PipelineDataSaIS0_EE19_M_get_Tp_allocatorEv
FNA:26,18,_ZNKSt11_Deque_baseIiSaIiEE19_M_get_Tp_allocatorEv
FNL:27,576,577
FNA:27,8,_ZNKSt11_Deque_baseI12PipelineDataSaIS0_EE20_M_get_map_allocatorEv
FNA:27,18,_ZNKSt11_Deque_baseIiSaIiEE20_M_get_map_allocatorEv
FNL:28,580,584
FNA:28,8,_ZNSt11_Deque_baseI12PipelineDataSaIS0_EE16_M_allocate_nodeEv
FNA:28,9,_ZNSt11_Deque_baseIiSaIiEE16_M_allocate_nodeEv
FNL:29,587,591
FNA:29,8,_ZNSt11_Deque_baseI12PipelineDataSaIS0_EE18_M_deallocate_nodeEPS0_
FNA:29,9,_ZNSt11_Deque_baseIiSaIiEE18_M_deallocate_nodeEPi
FNL:30,594,598
FNA:30,4,_ZNSt11_Deque_baseI12PipelineDataSaIS0_EE15_M_allocate_mapEm
FNA:30,9,_ZNSt11_Deque_baseIiSaIiEE15_M_allocate_mapEm
FNL:31,601,605
FNA:31,4,_ZNSt11_Deque_baseI12PipelineDataSaIS0_EE17_M_deallocate_mapEPPS0_m
FNA:31,9,_ZNSt11_Deque_baseIiSaIiEE17_M_deallocate_mapEPPim
FNL:32,617,626
FNA:32,4,_ZNSt11_Deque_baseI12PipelineDataSaIS0_EED2Ev
FNA:32,9,_ZNSt11_Deque_baseIiSaIiEED2Ev
FNL:33,638,673
FNA:33,4,_ZNSt11_Deque_baseI12PipelineDataSaIS0_EE17_M_initialize_mapEm
FNA:33,9,_ZNSt11_Deque_baseIiSaIiEE17_M_initialize_mapEm
FNL:34,677,691
FNA:34,4,_ZNSt11_Deque_baseI12PipelineDataSaIS0_EE15_M_create_nodesEPPS0_S4_
FNA:34,9,_ZNSt11_Deque_baseIiSaIiEE15_M_create_nodesEPPiS3_
FNL:35,695,701
FNA:35,4,_ZNSt11_Deque_baseI12PipelineDataSaIS0_EE16_M_destroy_nodesEPPS0_S4_
FNA:35,9,_ZNSt11_Deque_baseIiSaIiEE16_M_destroy_nodesEPPiS3_
FNL:36,828,829
FNA:36,0,_ZNSt5dequeI12PipelineDataSaIS0_EE14_S_buffer_sizeEv
FNL:37,855,855
FNA:37,4,_ZNSt5dequeI12PipelineDataSaIS0_EEC2Ev
FNA:37,9,_ZNSt5dequeIiSaIiEEC2Ev
FNL:38,96,98
FNA:38,98,_ZSt16__deque_buf_sizem
FNF:39
FNH:38
DA:96,98
DA:98,98
DA:131,38
DA:132,38
DA:151,26
DA:152,26
DA:168,78
DA:169,78
DA:170,78
DA:181,44
DA:182,44
DA:210,15
DA:212,15
DA:214,0
DA:215,0
DA:217,15
DA:218,15
DA:263,34
DA:265,34
DA:266,34
DA:267,34
DA:268,34
DA:272,66
DA:273,66
DA:370,4
DA:372,4
DA:373,4
DA:374,4
DA:375,4
DA:458,13
DA:459,13
DA:460,13
DA:516,13
DA:517,13
DA:518,13
DA:545,13
DA:547,13
DA:548,13
DA:568,61
DA:569,61
DA:572,30
DA:573,30
DA:576,26
DA:577,52
DA:580,17
DA:583,34
DA:587,17
DA:590,17
DA:591,17
DA:594,13
DA:596,13
DA:597,26
DA:601,13
DA:603,13
DA:605,13
DA:617,13
DA:620,13
DA:622,13
DA:623,13
DA:624,13
DA:626,13
DA:638,13
DA:641,13
DA:644,26
DA:645,13
DA:646,13
DA:653,13
DA:654,13
DA:655,13
DA:658,13
DA:659,0
DA:661,0
DA:662,0
DA:663,0
DA:664,0
DA:667,13
DA:668,13
DA:669,13
DA:670,26
DA:671,13
DA:672,13
DA:673,13
DA:677,13
DA:683,26
DA:684,13
DA:686,0
DA:688,0
DA:689,0
DA:691,13
DA:695,13
DA:699,26
DA:700,13
DA:701,13
DA:828,0
DA:829,0
DA:855,13
DA:1027,13
DA:1028,13
DA:1151,42
DA:1152,42
DA:1170,28
DA:1171,28
DA:1268,4
DA:1269,4
DA:1274,4
DA:1275,4
DA:1347,66
DA:1348,66
DA:1444,29
DA:1447,29
DA:1468,15
DA:1471,15
DA:1472,15
DA:1473,15
DA:1538,46
DA:1540,46
DA:1541,46
DA:1543,42
DA:1545,42
DA:1548,4
DA:1549,46
DA:1574,29
DA:1577,29
DA:1578,29
DA:1580,25
DA:1582,25
DA:1585,4
DA:1586,29
DA:1597,15
DA:1600,15
DA:1601,15
DA:1603,15
DA:1604,15
DA:1608,0
DA:1609,15
DA:1876,4
DA:1878,4
DA:1879,4
DA:1880,4
DA:2091,13
DA:2095,4
DA:2096,13
DA:2172,4
DA:2174,4
DA:2175,4
DA:2176,0
DA:2177,4
LF:147
LH:133
end_of_record
TN:
SF:/usr/include/c++/14/bits/stl_function.h
FNL:0,1163,1164
FNA:0,97,_ZNKSt9_IdentityISt4pairIiiEEclERKS1_
FNA:0,620,_ZNKSt9_IdentityIiEclERKi
FNL:1,404,405
FNA:1,75,_ZNKSt4lessISt4pairIiiEEclERKS1_S4_
FNA:1,463,_ZNKSt4lessIiEclERKiS2_
FNF:2
FNH:2
DA:404,538
DA:405,538
DA:1163,717
DA:1164,717
LF:4
LH:4
end_of_record
TN:
SF:/usr/include/c++/14/bits/stl_heap.h
FNL:0,135,147
FNA:0,0,_ZSt11__push_heapIN9__gnu_cxx17__normal_iteratorIPSt5tupleIJiiiEESt6vectorIS3_SaIS3_EEEElS3_NS0_5__ops14_Iter_less_valEEvT_T0_SC_T1_RT2_
FNL:1,224,249
FNA:1,0,_ZSt13__adjust_heapIN9__gnu_cxx17__normal_iteratorIPSt5tupleIJiiiEESt6vectorIS3_SaIS3_EEEElS3_NS0_5__ops15_Iter_less_iterEEvT_T0_SC_T1_T2_
FNL:2,254,267
FNA:2,0,_ZSt10__pop_heapIN9__gnu_cxx17__normal_iteratorIPSt5tupleIJiiiEESt6vectorIS3_SaIS3_EEEENS0_5__ops15_Iter_less_iterEEvT_SB_SB_RT0_
FNL:3,340,362
FNA:3,0,_ZSt11__make_heapIN9__gnu_cxx17__normal_iteratorIPSt5tupleIJiiiEESt6vectorIS3_SaIS3_EEEENS0_5__ops15_Iter_less_iterEEvT_SB_RT0_
FNL:4,419,427
FNA:4,0,_ZSt11__sort_heapIN9__gnu_cxx17__normal_iteratorIPSt5tupleIJiiiEESt6vectorIS3_SaIS3_EEEENS0_5__ops15_Iter_less_iterEEvT_SB_RT0_
FNF:5
FNH:0
DA:135,0
DA:139,0
DA:140,0
DA:142,0
DA:143,0
DA:144,0
DA:146,0
DA:147,0
DA:224,0
DA:227,0
DA:228,0
DA:229,0
DA:231,0
DA:232,0
DA:234,0
DA:235,0
DA:236,0
DA:238,0
DA:240,0
DA:241,0
DA:243,0
DA:246,0
DA:247,0
DA:248,0
DA:249,0
DA:254,0
DA:262,0
DA:263,0
DA:264,0
DA:265,0
DA:266,0
DA:267,0
DA:340,0
DA:348,0
DA:349,0
DA:351,0
DA:352,0
DA:353,0
DA:355,0
DA:356,0
DA:358,0
DA:359,0
DA:360,0
DA:419,0
DA:422,0
DA:424,0
DA:425,0
DA:427,0
LF:48
LH:0
end_of_record
TN:
SF:/usr/include/c++/14/bits/stl_iterator.h
FNL:0,1067,1068
FNA:0,3298,_ZN9__gnu_cxx17__normal_iteratorIPKN9GraphAlgo4EdgeESt6vectorIS2_SaIS2_EEEC2ERKS4_
FNA:0,482,_ZN9__gnu_cxx17__normal_iteratorIPKSt6vectorIN9GraphAlgo4EdgeESaIS3_EES1_IS5_SaIS5_EEEC2ERKS7_
FNA:0,68,_ZN9__gnu_cxx17__normal_iteratorIPKiSt6vectorIiSaIiEEEC2ERKS2_
FNA:0,1148,_ZN9__gnu_cxx17__normal_iteratorIPN9GraphAlgo4EdgeESt6vectorIS2_SaIS2_EEEC2ERKS3_
FNA:0,67,_ZN9__gnu_cxx17__normal_iteratorIPSt5tupleIJiiiEESt6vectorIS2_SaIS2_EEEC2ERKS3_
FNA:0,0,_ZN9__gnu_cxx17__normal_iteratorIPSt6vectorIN9GraphAlgo4EdgeESaIS3_EES1_IS5_SaIS5_EEEC2ERKS6_
FNA:0,18,_ZN9__gnu_cxx17__normal_iteratorIPSt6vectorIiSaIiEES1_IS3_SaIS3_EEEC2ERKS4_
FNA:0,62,_ZN9__gnu_cxx17__normal_iteratorIPiSt6vectorIiSaIiEEEC2ERKS1_
FNL:1,1090,1091
FNA:1,2380,_ZNK9__gnu_cxx17__normal_iteratorIPKN9GraphAlgo4EdgeESt6vectorIS2_SaIS2_EEEdeEv
FNA:1,1067,_ZNK9__gnu_cxx17__normal_iteratorIPKSt6vectorIN9GraphAlgo4EdgeESaIS3_EES1_IS5_SaIS5_EEEdeEv
FNA:1,15,_ZNK9__gnu_cxx17__normal_iteratorIPKiSt6vectorIiSaIiEEEdeEv
FNA:1,287,_ZNK9__gnu_cxx17__normal_iteratorIPN9GraphAlgo4EdgeESt6vectorIS2_SaIS2_EEEdeEv
FNA:1,85,_ZNK9__gnu_cxx17__normal_iteratorIPSt5tupleIJiiiEESt6vectorIS2_SaIS2_EEEdeEv
FNA:1,0,_ZNK9__gnu_cxx17__normal_iteratorIPSt6vectorIN9GraphAlgo4EdgeESaIS3_EES1_IS5_SaIS5_EEEdeEv
FNA:1,7,_ZNK9__gnu_cxx17__normal_iteratorIPSt6vectorIiSaIiEES1_IS3_SaIS3_EEEdeEv
FNA:1,9,_ZNK9__gnu_cxx17__normal_iteratorIPiSt6vectorIiSaIiEEEdeEv
FNL:2,1100,1104
FNA:2,2380,_ZN9__gnu_cxx17__normal_iteratorIPKN9GraphAlgo4EdgeESt6vectorIS2_SaIS2_EEEppEv
FNA:2,1067,_ZN9__gnu_cxx17__normal_iteratorIPKSt6vectorIN9GraphAlgo4EdgeESaIS3_EES1_IS5_SaIS5_EEEppEv
FNA:2,15,_ZN9__gnu_cxx17__normal_iteratorIPKiSt6vectorIiSaIiEEEppEv
FNA:2,25,_ZN9__gnu_cxx17__normal_iteratorIPSt5tupleIJiiiEESt6vectorIS2_SaIS2_EEEppEv
FNA:2,0,_ZN9__gnu_cxx17__normal_iteratorIPSt6vectorIN9GraphAlgo4EdgeESaIS3_EES1_IS5_SaIS5_EEEppEv
FNA:2,7,_ZN9__gnu_cxx17__normal_iteratorIPSt6vectorIiSaIiEES1_IS3_SaIS3_EEEppEv
FNA:2,9,_ZN9__gnu_cxx17__normal_iteratorIPiSt6vectorIiSaIiEEEppEv
FNL:3,1114,1118
FNA:3,11,_ZN9__gnu_cxx17__normal_iteratorIPSt5tupleIJiiiEESt6vectorIS2_SaIS2_EEEmmEv
FNL:4,1138,1139
FNA:4,0,_ZNK9__gnu_cxx17__normal_iteratorIPN9GraphAlgo4EdgeESt6vectorIS2_SaIS2_EEEplEl
FNA:4,5,_ZNK9__gnu_cxx17__normal_iteratorIPSt5tupleIJiiiEESt6vectorIS2_SaIS2_EEEplEl
FNA:4,0,_ZNK9__gnu_cxx17__normal_iteratorIPSt6vectorIN9GraphAlgo4EdgeESaIS3_EES1_IS5_SaIS5_EEEplEl
FNA:4,0,_ZNK9__gnu_cxx17__normal_iteratorIPiSt6vectorIiSaIiEEEplEl
FNL:5,1148,1149
FNA:5,287,_ZNK9__gnu_cxx17__normal_iteratorIPN9GraphAlgo4EdgeESt6vectorIS2_SaIS2_EEEmiEl
FNA:5,14,_ZNK9__gnu_cxx17__normal_iteratorIPSt5tupleIJiiiEESt6vectorIS2_SaIS2_EEEmiEl
FNL:6,1153,1154
FNA:6,8058,_ZNK9__gnu_cxx17__normal_iteratorIPKN9GraphAlgo4EdgeESt6vectorIS2_SaIS2_EEE4baseEv
FNA:6,2616,_ZNK9__gnu_cxx17__normal_iteratorIPKSt6vectorIN9GraphAlgo4EdgeESaIS3_EES1_IS5_SaIS5_EEE4baseEv
FNA:6,98,_ZNK9__gnu_cxx17__normal_iteratorIPKiSt6vectorIiSaIiEEE4baseEv
FNA:6,574,_ZNK9__gnu_cxx17__normal_iteratorIPN9GraphAlgo4EdgeESt6vectorIS2_SaIS2_EEE4baseEv
FNA:6,118,_ZNK9__gnu_cxx17__normal_iteratorIPSt5tupleIJiiiEESt6vectorIS2_SaIS2_EEE4baseEv
FNA:6,0,_ZNK9__gnu_cxx17__normal_iteratorIPSt6vectorIN9GraphAlgo4EdgeESaIS3_EES1_IS5_SaIS5_EEE4baseEv
FNA:6,32,_ZNK9__gnu_cxx17__normal_iteratorIPSt6vectorIiSaIiEES1_IS3_SaIS3_EEE4baseEv
FNA:6,80,_ZNK9__gnu_cxx17__normal_iteratorIPiSt6vectorIiSaIiEEE4baseEv
FNL:7,1216,1219
FNA:7,3,_ZN9__gnu_cxxeqIPSt5tupleIJiiiEESt6vectorIS2_SaIS2_EEEEbRKNS_17__normal_iteratorIT_T0_EESC_
FNL:8,1232,1235
FNA:8,4029,_ZN9__gnu_cxxneIPKN9GraphAlgo4EdgeESt6vectorIS2_SaIS2_EEEEbRKNS_17__normal_iteratorIT_T0_EESD_
FNA:8,1308,_ZN9__gnu_cxxneIPKSt6vectorIN9GraphAlgo4EdgeESaIS3_EES1_IS5_SaIS5_EEEEbRKNS_17__normal_iteratorIT_T0_EESF_
FNA:8,22,_ZN9__gnu_cxxneIPKiSt6vectorIiSaIiEEEEbRKNS_17__normal_iteratorIT_T0_EESB_
FNA:8,34,_ZN9__gnu_cxxneIPSt5tupleIJiiiEESt6vectorIS2_SaIS2_EEEEbRKNS_17__normal_iteratorIT_T0_EESC_
FNA:8,0,_ZN9__gnu_cxxneIPSt6vectorIN9GraphAlgo4EdgeESaIS3_EES1_IS5_SaIS5_EEEEbRKNS_17__normal_iteratorIT_T0_EESE_
FNA:8,10,_ZN9__gnu_cxxneIPSt6vectorIiSaIiEES1_IS3_SaIS3_EEEEbRKNS_17__normal_iteratorIT_T0_EESC_
FNA:8,12,_ZN9__gnu_cxxneIPiSt6vectorIiSaIiEEEEbRKNS_17__normal_iteratorIT_T0_EESA_
FNL:9,1249,1252
FNA:9,0,_ZN9__gnu_cxxltIPSt5tupleIJiiiEESt6vectorIS2_SaIS2_EEEEbRKNS_17__normal_iteratorIT_T0_EESC_
FNL:10,1325,1328
FNA:10,287,_ZN9__gnu_cxxmiIPN9GraphAlgo4EdgeESt6vectorIS2_SaIS2_EEEENS_17__normal_iteratorIT_T0_E15difference_typeERKSA_SD_
FNA:10,20,_ZN9__gnu_cxxmiIPSt5tupleIJiiiEESt6vectorIS2_SaIS2_EEEENS_17__normal_iteratorIT_T0_E15difference_typeERKSA_SD_
FNA:10,6,_ZN9__gnu_cxxmiIPSt6vectorIiSaIiEES1_IS3_SaIS3_EEEENS_17__normal_iteratorIT_T0_E15difference_typeERKSA_SD_
FNA:10,22,_ZN9__gnu_cxxmiIPiSt6vectorIiSaIiEEEENS_17__normal_iteratorIT_T0_E15difference_typeERKS8_SB_
FNL:11,1348,1350
FNA:11,0,_ZSt12__niter_baseIPKN9GraphAlgo4EdgeESt6vectorIS1_SaIS1_EEET_N9__gnu_cxx17__normal_iteratorIS7_T0_EE
FNA:11,0,_ZSt12__niter_baseIPKSt6vectorIN9GraphAlgo4EdgeESaIS2_EES0_IS4_SaIS4_EEET_N9__gnu_cxx17__normal_iteratorIS9_T0_EE
FNA:11,54,_ZSt12__niter_baseIPKiSt6vectorIiSaIiEEET_N9__gnu_cxx17__normal_iteratorIS5_T0_EE
FNA:11,0,_ZSt12__niter_baseIPN9GraphAlgo4EdgeESt6vectorIS1_SaIS1_EEET_N9__gnu_cxx17__normal_iteratorIS6_T0_EE
FNA:11,4,_ZSt12__niter_baseIPSt5tupleIJiiiEESt6vectorIS1_SaIS1_EEET_N9__gnu_cxx17__normal_iteratorIS6_T0_EE
FNA:11,0,_ZSt12__niter_baseIPSt6vectorIN9GraphAlgo4EdgeESaIS2_EES0_IS4_SaIS4_EEET_N9__gnu_cxx17__normal_iteratorIS8_T0_EE
FNA:11,0,_ZSt12__niter_baseIPiSt6vectorIiSaIiEEET_N9__gnu_cxx17__normal_iteratorIS4_T0_EE
FNF:12
FNH:11
DA:1067,5143
DA:1068,5143
DA:1090,3850
DA:1091,3850
DA:1100,3503
DA:1102,3503
DA:1103,3503
DA:1114,11
DA:1116,11
DA:1117,11
DA:1138,5
DA:1139,5
DA:1148,301
DA:1149,301
DA:1153,11576
DA:1154,11576
DA:1216,3
DA:1219,3
DA:1232,5415
DA:1235,5415
DA:1249,0
DA:1252,0
DA:1325,335
DA:1328,335
DA:1348,58
DA:1350,58
LF:26
LH:24
end_of_record
TN:
SF:/usr/include/c++/14/bits/stl_iterator_base_funcs.h
FNF:0
FNH:0
DA:106,10
DA:151,20
DA:152,20
LF:3
LH:3
end_of_record
TN:
SF:/usr/include/c++/14/bits/stl_iterator_base_types.h
FNF:0
FNH:0
DA:240,19
LF:1
LH:1
end_of_record
TN:
SF:/usr/include/c++/14/bits/stl_pair.h
FNL:0,1045,1047
FNA:0,75,_ZStltIiiEbRKSt4pairIT_T0_ES5_
FNL:1,1132,1138
FNA:1,7,_ZSt9make_pairIRKiS1_ESt4pairINSt25__strip_reference_wrapperINSt5decayIT_E4typeEE6__typeENS3_INS4_IT0_E4typeEE6__typeEEOS5_OSA_
FNA:1,8,_ZSt9make_pairIRiS0_ESt4pairINSt25__strip_reference_wrapperINSt5decayIT_E4typeEE6__typeENS2_INS3_IT0_E4typeEE6__typeEEOS4_OS9_
FNL:2,752,753
FNA:2,0,_ZNSt4pairIPSt18_Rb_tree_node_baseS1_EC2IS1_S1_Lb1EEERKS1_S5_
FNA:2,7,_ZNSt4pairIiiEC2IiiLb1EEERKiS3_
FNL:3,881,883
FNA:3,12,_ZNSt4pairIPSt18_Rb_tree_node_baseS1_EC2IRPSt13_Rb_tree_nodeIS_IiiEERS1_Lb1EEEOT_OT0_
FNA:3,108,_ZNSt4pairIPSt18_Rb_tree_node_baseS1_EC2IRPSt13_Rb_tree_nodeIiERS1_Lb1EEEOT_OT0_
FNA:3,12,_ZNSt4pairISt17_Rb_tree_iteratorIS_IiiEEbEC2IS2_bLb1EEEOT_OT0_
FNA:3,24,_ZNSt4pairISt17_Rb_tree_iteratorIiES1_EC2IS1_S1_Lb1EEEOT_OT0_
FNA:3,108,_ZNSt4pairISt17_Rb_tree_iteratorIiEbEC2IS1_bLb1EEEOT_OT0_
FNA:3,12,_ZNSt4pairISt23_Rb_tree_const_iteratorIS_IiiEEbEC2IRSt17_Rb_tree_iteratorIS1_ERbLb1EEEOT_OT0_
FNA:3,108,_ZNSt4pairISt23_Rb_tree_const_iteratorIiEbEC2IRSt17_Rb_tree_iteratorIiERbLb1EEEOT_OT0_
FNA:3,8,_ZNSt4pairIiiEC2IRiS2_Lb1EEEOT_OT0_
FNF:4
FNH:4
DA:752,7
DA:753,7
DA:881,392
DA:882,392
DA:883,392
DA:1045,75
DA:1046,75
DA:1047,75
DA:1132,15
DA:1137,15
LF:10
LH:10
end_of_record
TN:
SF:/usr/include/c++/14/bits/stl_queue.h
FNL:0,166,167
FNA:0,4,_ZNSt5queueI12PipelineDataSt5dequeIS0_SaIS0_EEEC2IS3_vEEv
FNA:0,6,_ZNSt5queueIiSt5dequeIiSaIiEEEC2IS2_vEEv
FNL:1,216,217
FNA:1,32,_ZNKSt5queueI12PipelineDataSt5dequeIS0_SaIS0_EEE5emptyEv
FNA:1,16,_ZNKSt5queueIiSt5dequeIiSaIiEEE5emptyEv
FNL:2,231,235
FNA:2,16,_ZNSt5queueI12PipelineDataSt5dequeIS0_SaIS0_EEE5frontEv
FNA:2,13,_ZNSt5queueIiSt5dequeIiSaIiEEE5frontEv
FNL:3,283,284
FNA:3,16,_ZNSt5queueI12PipelineDataSt5dequeIS0_SaIS0_EEE4pushERKS0_
FNA:3,15,_ZNSt5queueIiSt5dequeIiSaIiEEE4pushERKi
FNL:4,316,320
FNA:4,16,_ZNSt5queueI12PipelineDataSt5dequeIS0_SaIS0_EEE3popEv
FNA:4,13,_ZNSt5queueIiSt5dequeIiSaIiEEE3popEv
FNF:5
FNH:5
DA:166,10
DA:167,10
DA:216,48
DA:217,48
DA:231,29
DA:234,29
DA:283,31
DA:284,31
DA:316,29
DA:319,29
DA:320,29
LF:11
LH:11
end_of_record
TN:
SF:/usr/include/c++/14/bits/stl_set.h
FNL:0,169,169
FNA:0,2,_ZNSt3setISt4pairIiiESt4lessIS1_ESaIS1_EEC2Ev
FNA:0,86,_ZNSt3setIiSt4lessIiESaIiEEC2Ev
FNL:1,283,283
FNA:1,2,_ZNSt3setISt4pairIiiESt4lessIS1_ESaIS1_EED2Ev
FNA:1,86,_ZNSt3setIiSt4lessIiESaIiEED2Ev
FNL:2,346,347
FNA:2,96,_ZNKSt3setIiSt4lessIiESaIiEE5beginEv
FNL:3,355,356
FNA:3,82,_ZNKSt3setIiSt4lessIiESaIiEE3endEv
FNL:4,416,417
FNA:4,57,_ZNKSt3setIiSt4lessIiESaIiEE5emptyEv
FNL:5,421,422
FNA:5,18,_ZNKSt3setISt4pairIiiESt4lessIS1_ESaIS1_EE4sizeEv
FNL:6,511,516
FNA:6,12,_ZNSt3setISt4pairIiiESt4lessIS1_ESaIS1_EE6insertERKS1_
FNA:6,108,_ZNSt3setIiSt4lessIiESaIiEE6insertERKi
FNL:7,686,687
FNA:7,24,_ZNSt3setIiSt4lessIiESaIiEE5eraseERKi
FNL:8,750,751
FNA:8,15,_ZNKSt3setISt4pairIiiESt4lessIS1_ESaIS1_EE5countERKS1_
FNA:8,109,_ZNKSt3setIiSt4lessIiESaIiEE5countERKi
FNF:9
FNH:9
DA:169,88
DA:283,88
DA:346,96
DA:347,96
DA:355,82
DA:356,82
DA:416,57
DA:417,57
DA:421,18
DA:422,18
DA:511,120
DA:514,120
DA:515,120
DA:686,24
DA:687,24
DA:750,124
DA:751,124
LF:17
LH:17
end_of_record
TN:
SF:/usr/include/c++/14/bits/stl_stack.h
FNL:0,162,163
FNA:0,3,_ZNSt5stackIiSt5dequeIiSaIiEEEC2IS2_vEEv
FNL:1,215,216
FNA:1,18,_ZNKSt5stackIiSt5dequeIiSaIiEEE5emptyEv
FNL:2,230,234
FNA:2,15,_ZNSt5stackIiSt5dequeIiSaIiEEE3topEv
FNL:3,258,259
FNA:3,15,_ZNSt5stackIiSt5dequeIiSaIiEEE4pushERKi
FNL:4,291,295
FNA:4,15,_ZNSt5stackIiSt5dequeIiSaIiEEE3popEv
FNF:5
FNH:5
DA:162,3
DA:163,3
DA:215,18
DA:216,18
DA:230,15
DA:233,15
DA:258,15
DA:259,15
DA:291,15
DA:294,15
DA:295,15
LF:11
LH:11
end_of_record
TN:
SF:/usr/include/c++/14/bits/stl_tree.h
FNL:0,1001,1002
FNA:0,20,_ZNSt8_Rb_treeIiiSt9_IdentityIiESt4lessIiESaIiEE3endEv
FNL:1,1005,1006
FNA:1,42,_ZNKSt8_Rb_treeISt4pairIiiES1_St9_IdentityIS1_ESt4lessIS1_ESaIS1_EE3endEv
FNA:1,381,_ZNKSt8_Rb_treeIiiSt9_IdentityIiESt4lessIiESaIiEE3endEv
FNL:2,1025,1026
FNA:2,57,_ZNKSt8_Rb_treeIiiSt9_IdentityIiESt4lessIiESaIiEE5emptyEv
FNL:3,1029,1030
FNA:3,18,_ZNKSt8_Rb_treeISt4pairIiiES1_St9_IdentityIS1_ESt4lessIS1_ESaIS1_EE4sizeEv
FNA:3,48,_ZNKSt8_Rb_treeIiiSt9_IdentityIiESt4lessIiESaIiEE4sizeEv
FNL:4,1249,1253
FNA:4,9,_ZNSt8_Rb_treeIiiSt9_IdentityIiESt4lessIiESaIiEE5clearEv
FNL:5,142,146
FNA:5,2,_ZNSt20_Rb_tree_key_compareISt4lessISt4pairIiiEEEC2Ev
FNA:5,86,_ZNSt20_Rb_tree_key_compareISt4lessIiEEC2Ev
FNL:6,169,173
FNA:6,88,_ZNSt15_Rb_tree_headerC2Ev
FNL:7,1814,1833
FNA:7,12,_ZNSt8_Rb_treeISt4pairIiiES1_St9_IdentityIS1_ESt4lessIS1_ESaIS1_EE10_M_insert_IRKS1_NS7_11_Alloc_nodeEEESt17_Rb_tree_iteratorIS1_EPSt18_Rb_tree_node_baseSF_OT_RT0_
FNA:7,108,_ZNSt8_Rb_treeIiiSt9_IdentityIiESt4lessIiESaIiEE10_M_insert_IRKiNS5_11_Alloc_nodeEEESt17_Rb_tree_iteratorIiEPSt18_Rb_tree_node_baseSD_OT_RT0_
FNL:8,1926,1937
FNA:8,14,_ZNSt8_Rb_treeISt4pairIiiES1_St9_IdentityIS1_ESt4lessIS1_ESaIS1_EE8_M_eraseEPSt13_Rb_tree_nodeIS1_E
FNA:8,188,_ZNSt8_Rb_treeIiiSt9_IdentityIiESt4lessIiESaIiEE8_M_eraseEPSt13_Rb_tree_nodeIiE
FNL:9,1943,1953
FNA:9,24,_ZNSt8_Rb_treeIiiSt9_IdentityIiESt4lessIiESaIiEE14_M_lower_boundEPSt13_Rb_tree_nodeIiEPSt18_Rb_tree_node_baseRKi
FNL:10,1959,1969
FNA:10,15,_ZNKSt8_Rb_treeISt4pairIiiES1_St9_IdentityIS1_ESt4lessIS1_ESaIS1_EE14_M_lower_boundEPKSt13_Rb_tree_nodeIS1_EPKSt18_Rb_tree_node_baseRKS1_
FNA:10,109,_ZNKSt8_Rb_treeIiiSt9_IdentityIiESt4lessIiESaIiEE14_M_lower_boundEPKSt13_Rb_tree_nodeIiEPKSt18_Rb_tree_node_baseRKi
FNL:11,1975,1985
FNA:11,24,_ZNSt8_Rb_treeIiiSt9_IdentityIiESt4lessIiESaIiEE14_M_upper_boundEPSt13_Rb_tree_nodeIiEPSt18_Rb_tree_node_baseRKi
FNL:12,2009,2033
FNA:12,24,_ZNSt8_Rb_treeIiiSt9_IdentityIiESt4lessIiESaIiEE11equal_rangeERKi
FNL:13,202,208
FNA:13,97,_ZNSt15_Rb_tree_header8_M_resetEv
FNL:14,2106,2130
FNA:14,12,_ZNSt8_Rb_treeISt4pairIiiES1_St9_IdentityIS1_ESt4lessIS1_ESaIS1_EE24_M_get_insert_unique_posERKS1_
FNA:14,108,_ZNSt8_Rb_treeIiiSt9_IdentityIiESt4lessIiESaIiEE24_M_get_insert_unique_posERKi
FNL:15,2160,2180
FNA:15,12,_ZNSt8_Rb_treeISt4pairIiiES1_St9_IdentityIS1_ESt4lessIS1_ESaIS1_EE16_M_insert_uniqueIRKS1_EES0_ISt17_Rb_tree_iteratorIS1_EbEOT_
FNA:15,108,_ZNSt8_Rb_treeIiiSt9_IdentityIiESt4lessIiESaIiEE16_M_insert_uniqueIRKiEESt4pairISt17_Rb_tree_iteratorIiEbEOT_
FNL:16,230,231
FNA:16,24,_ZNSt13_Rb_tree_nodeISt4pairIiiEE9_M_valptrEv
FNA:16,216,_ZNSt13_Rb_tree_nodeIiE9_M_valptrEv
FNL:17,234,235
FNA:17,75,_ZNKSt13_Rb_tree_nodeISt4pairIiiEE9_M_valptrEv
FNA:17,610,_ZNKSt13_Rb_tree_nodeIiE9_M_valptrEv
FNL:18,2487,2496
FNA:18,15,_ZNSt8_Rb_treeIiiSt9_IdentityIiESt4lessIiESaIiEE12_M_erase_auxESt23_Rb_tree_const_iteratorIiE
FNL:19,2501,2509
FNA:19,24,_ZNSt8_Rb_treeIiiSt9_IdentityIiESt4lessIiESaIiEE12_M_erase_auxESt23_Rb_tree_const_iteratorIiES7_
FNL:20,2514,2521
FNA:20,24,_ZNSt8_Rb_treeIiiSt9_IdentityIiESt4lessIiESaIiEE5eraseERKi
FNL:21,2540,2547
FNA:21,15,_ZNKSt8_Rb_treeISt4pairIiiES1_St9_IdentityIS1_ESt4lessIS1_ESaIS1_EE4findERKS1_
FNA:21,109,_ZNKSt8_Rb_treeIiiSt9_IdentityIiESt4lessIiESaIiEE4findERKi
FNL:22,269,270
FNA:22,29,_ZNSt17_Rb_tree_iteratorISt4pairIiiEEC2EPSt18_Rb_tree_node_base
FNA:22,372,_ZNSt17_Rb_tree_iteratorIiEC2EPSt18_Rb_tree_node_base
FNL:23,296,300
FNA:23,2,_ZNSt17_Rb_tree_iteratorISt4pairIiiEEmmEv
FNA:23,1,_ZNSt17_Rb_tree_iteratorIiEmmEv
FNL:24,311,312
FNA:24,5,_ZSteqRKSt17_Rb_tree_iteratorISt4pairIiiEES4_
FNA:24,64,_ZSteqRKSt17_Rb_tree_iteratorIiES2_
FNL:25,343,344
FNA:25,57,_ZNSt23_Rb_tree_const_iteratorISt4pairIiiEEC2EPKSt18_Rb_tree_node_base
FNA:25,586,_ZNSt23_Rb_tree_const_iteratorIiEC2EPKSt18_Rb_tree_node_base
FNL:26,346,347
FNA:26,12,_ZNSt23_Rb_tree_const_iteratorISt4pairIiiEEC2ERKSt17_Rb_tree_iteratorIS1_E
FNA:26,200,_ZNSt23_Rb_tree_const_iteratorIiEC2ERKSt17_Rb_tree_iteratorIiE
FNL:27,354,355
FNA:27,147,_ZNKSt23_Rb_tree_const_iteratorIiEdeEv
FNL:28,362,366
FNA:28,133,_ZNSt23_Rb_tree_const_iteratorIiEppEv
FNL:29,369,374
FNA:29,15,_ZNSt23_Rb_tree_const_iteratorIiEppEi
FNL:30,392,393
FNA:30,30,_ZSteqRKSt23_Rb_tree_const_iteratorISt4pairIiiEES4_
FNA:30,262,_ZSteqRKSt23_Rb_tree_const_iteratorIiES2_
FNL:31,397,398
FNA:31,245,_ZStneRKSt23_Rb_tree_const_iteratorIiES2_
FNL:32,521,522
FNA:32,12,_ZNSt8_Rb_treeISt4pairIiiES1_St9_IdentityIS1_ESt4lessIS1_ESaIS1_EE11_Alloc_nodeC2ERS7_
FNA:32,108,_ZNSt8_Rb_treeIiiSt9_IdentityIiESt4lessIiESaIiEE11_Alloc_nodeC2ERS5_
FNL:33,526,527
FNA:33,12,_ZNKSt8_Rb_treeISt4pairIiiES1_St9_IdentityIS1_ESt4lessIS1_ESaIS1_EE11_Alloc_nodeclIRKS1_EEPSt13_Rb_tree_nodeIS1_EOT_
FNA:33,108,_ZNKSt8_Rb_treeIiiSt9_IdentityIiESt4lessIiESaIiEE11_Alloc_nodeclIRKiEEPSt13_Rb_tree_nodeIiEOT_
FNL:34,545,546
FNA:34,48,_ZNSt8_Rb_treeISt4pairIiiES1_St9_IdentityIS1_ESt4lessIS1_ESaIS1_EE21_M_get_Node_allocatorEv
FNA:34,432,_ZNSt8_Rb_treeIiiSt9_IdentityIiESt4lessIiESaIiEE21_M_get_Node_allocatorEv
FNL:35,558,559
FNA:35,12,_ZNSt8_Rb_treeISt4pairIiiES1_St9_IdentityIS1_ESt4lessIS1_ESaIS1_EE11_M_get_nodeEv
FNA:35,108,_ZNSt8_Rb_treeIiiSt9_IdentityIiESt4lessIiESaIiEE11_M_get_nodeEv
FNL:36,562,563
FNA:36,12,_ZNSt8_Rb_treeISt4pairIiiES1_St9_IdentityIS1_ESt4lessIS1_ESaIS1_EE11_M_put_nodeEPSt13_Rb_tree_nodeIS1_E
FNA:36,108,_ZNSt8_Rb_treeIiiSt9_IdentityIiESt4lessIiESaIiEE11_M_put_nodeEPSt13_Rb_tree_nodeIiE
FNL:37,588,603
FNA:37,12,_ZNSt8_Rb_treeISt4pairIiiES1_St9_IdentityIS1_ESt4lessIS1_ESaIS1_EE17_M_construct_nodeIJRKS1_EEEvPSt13_Rb_tree_nodeIS1_EDpOT_
FNA:37,108,_ZNSt8_Rb_treeIiiSt9_IdentityIiESt4lessIiESaIiEE17_M_construct_nodeIJRKiEEEvPSt13_Rb_tree_nodeIiEDpOT_
FNL:38,607,612
FNA:38,12,_ZNSt8_Rb_treeISt4pairIiiES1_St9_IdentityIS1_ESt4lessIS1_ESaIS1_EE14_M_create_nodeIJRKS1_EEEPSt13_Rb_tree_nodeIS1_EDpOT_
FNA:38,108,_ZNSt8_Rb_treeIiiSt9_IdentityIiESt4lessIiESaIiEE14_M_create_nodeIJRKiEEEPSt13_Rb_tree_nodeIiEDpOT_
FNL:39,616,624
FNA:39,12,_ZNSt8_Rb_treeISt4pairIiiES1_St9_IdentityIS1_ESt4lessIS1_ESaIS1_EE15_M_destroy_nodeEPSt13_Rb_tree_nodeIS1_E
FNA:39,108,_ZNSt8_Rb_treeIiiSt9_IdentityIiESt4lessIiESaIiEE15_M_destroy_nodeEPSt13_Rb_tree_nodeIiE
FNL:40,627,631
FNA:40,12,_ZNSt8_Rb_treeISt4pairIiiES1_St9_IdentityIS1_ESt4lessIS1_ESaIS1_EE12_M_drop_nodeEPSt13_Rb_tree_nodeIS1_E
FNA:40,108,_ZNSt8_Rb_treeIiiSt9_IdentityIiESt4lessIiESaIiEE12_M_drop_nodeEPSt13_Rb_tree_nodeIiE
FNL:41,665,670
FNA:41,2,_ZNSt8_Rb_treeISt4pairIiiES1_St9_IdentityIS1_ESt4lessIS1_ESaIS1_EE13_Rb_tree_implIS5_Lb1EEC2Ev
FNA:41,86,_ZNSt8_Rb_treeIiiSt9_IdentityIiESt4lessIiESaIiEE13_Rb_tree_implIS3_Lb1EEC2Ev
FNL:42,732,733
FNA:42,14,_ZNKSt8_Rb_treeISt4pairIiiES1_St9_IdentityIS1_ESt4lessIS1_ESaIS1_EE9_M_mbeginEv
FNA:42,227,_ZNKSt8_Rb_treeIiiSt9_IdentityIiESt4lessIiESaIiEE9_M_mbeginEv
FNL:43,736,737
FNA:43,14,_ZNSt8_Rb_treeISt4pairIiiES1_St9_IdentityIS1_ESt4lessIS1_ESaIS1_EE8_M_beginEv
FNA:43,227,_ZNSt8_Rb_treeIiiSt9_IdentityIiESt4lessIiESaIiEE8_M_beginEv
FNL:44,740,744
FNA:44,15,_ZNKSt8_Rb_treeISt4pairIiiES1_St9_IdentityIS1_ESt4lessIS1_ESaIS1_EE8_M_beginEv
FNA:44,109,_ZNKSt8_Rb_treeIiiSt9_IdentityIiESt4lessIiESaIiEE8_M_beginEv
FNL:45,747,748
FNA:45,24,_ZNSt8_Rb_treeISt4pairIiiES1_St9_IdentityIS1_ESt4lessIS1_ESaIS1_EE6_M_endEv
FNA:45,240,_ZNSt8_Rb_treeIiiSt9_IdentityIiESt4lessIiESaIiEE6_M_endEv
FNL:46,751,752
FNA:46,15,_ZNKSt8_Rb_treeISt4pairIiiES1_St9_IdentityIS1_ESt4lessIS1_ESaIS1_EE6_M_endEv
FNA:46,109,_ZNKSt8_Rb_treeIiiSt9_IdentityIiESt4lessIiESaIiEE6_M_endEv
FNL:47,755,774
FNA:47,75,_ZNSt8_Rb_treeISt4pairIiiES1_St9_IdentityIS1_ESt4lessIS1_ESaIS1_EE6_S_keyEPKSt13_Rb_tree_nodeIS1_E
FNA:47,463,_ZNSt8_Rb_treeIiiSt9_IdentityIiESt4lessIiESaIiEE6_S_keyEPKSt13_Rb_tree_nodeIiE
FNL:48,777,778
FNA:48,17,_ZNSt8_Rb_treeISt4pairIiiES1_St9_IdentityIS1_ESt4lessIS1_ESaIS1_EE7_S_leftEPSt18_Rb_tree_node_base
FNA:48,137,_ZNSt8_Rb_treeIiiSt9_IdentityIiESt4lessIiESaIiEE7_S_leftEPSt18_Rb_tree_node_base
FNL:49,781,782
FNA:49,8,_ZNSt8_Rb_treeISt4pairIiiES1_St9_IdentityIS1_ESt4lessIS1_ESaIS1_EE7_S_leftEPKSt18_Rb_tree_node_base
FNA:49,80,_ZNSt8_Rb_treeIiiSt9_IdentityIiESt4lessIiESaIiEE7_S_leftEPKSt18_Rb_tree_node_base
FNL:50,785,786
FNA:50,28,_ZNSt8_Rb_treeISt4pairIiiES1_St9_IdentityIS1_ESt4lessIS1_ESaIS1_EE8_S_rightEPSt18_Rb_tree_node_base
FNA:50,192,_ZNSt8_Rb_treeIiiSt9_IdentityIiESt4lessIiESaIiEE8_S_rightEPSt18_Rb_tree_node_base
FNL:51,789,790
FNA:51,20,_ZNSt8_Rb_treeISt4pairIiiES1_St9_IdentityIS1_ESt4lessIS1_ESaIS1_EE8_S_rightEPKSt18_Rb_tree_node_base
FNA:51,68,_ZNSt8_Rb_treeIiiSt9_IdentityIiESt4lessIiESaIiEE8_S_rightEPKSt18_Rb_tree_node_base
FNL:52,793,794
FNA:52,26,_ZNSt8_Rb_treeISt4pairIiiES1_St9_IdentityIS1_ESt4lessIS1_ESaIS1_EE6_S_keyEPKSt18_Rb_tree_node_base
FNA:52,167,_ZNSt8_Rb_treeIiiSt9_IdentityIiESt4lessIiESaIiEE6_S_keyEPKSt18_Rb_tree_node_base
FNL:53,926,926
FNA:53,2,_ZNSt8_Rb_treeISt4pairIiiES1_St9_IdentityIS1_ESt4lessIS1_ESaIS1_EEC2Ev
FNA:53,86,_ZNSt8_Rb_treeIiiSt9_IdentityIiESt4lessIiESaIiEEC2Ev
FNL:54,981,982
FNA:54,2,_ZNSt8_Rb_treeISt4pairIiiES1_St9_IdentityIS1_ESt4lessIS1_ESaIS1_EED2Ev
FNA:54,86,_ZNSt8_Rb_treeIiiSt9_IdentityIiESt4lessIiESaIiEED2Ev
FNL:55,993,994
FNA:55,5,_ZNSt8_Rb_treeISt4pairIiiES1_St9_IdentityIS1_ESt4lessIS1_ESaIS1_EE5beginEv
FNA:55,88,_ZNSt8_Rb_treeIiiSt9_IdentityIiESt4lessIiESaIiEE5beginEv
FNL:56,997,998
FNA:56,96,_ZNKSt8_Rb_treeIiiSt9_IdentityIiESt4lessIiESaIiEE5beginEv
FNF:57
FNH:57
DA:142,88
DA:146,88
DA:169,88
DA:170,88
DA:171,88
DA:172,88
DA:173,88
DA:202,97
DA:204,97
DA:205,97
DA:206,97
DA:207,97
DA:208,97
DA:230,240
DA:231,240
DA:234,685
DA:235,685
DA:269,401
DA:270,401
DA:296,3
DA:298,3
DA:299,3
DA:311,69
DA:312,69
DA:343,643
DA:344,643
DA:346,212
DA:347,212
DA:354,147
DA:355,147
DA:362,133
DA:364,133
DA:365,133
DA:369,15
DA:371,15
DA:372,15
DA:373,15
DA:392,292
DA:393,292
DA:397,245
DA:398,245
DA:521,120
DA:522,120
DA:526,120
DA:527,120
DA:545,480
DA:546,480
DA:558,120
DA:559,240
DA:562,120
DA:563,120
DA:588,120
DA:592,120
DA:593,120
DA:603,120
DA:607,120
DA:609,120
DA:610,120
DA:611,120
DA:616,120
DA:621,120
DA:622,120
DA:624,120
DA:627,120
DA:629,120
DA:630,120
DA:631,120
DA:665,88
DA:669,88
DA:670,88
DA:732,241
DA:733,241
DA:736,241
DA:737,241
DA:740,124
DA:743,124
DA:747,264
DA:748,264
DA:751,124
DA:752,124
DA:755,538
DA:773,538
DA:777,154
DA:778,154
DA:781,88
DA:782,88
DA:785,220
DA:786,220
DA:789,88
DA:790,88
DA:793,193
DA:794,193
DA:926,88
DA:981,88
DA:982,88
DA:993,93
DA:994,93
DA:997,96
DA:998,96
DA:1001,20
DA:1002,20
DA:1005,423
DA:1006,423
DA:1025,57
DA:1026,57
DA:1029,66
DA:1030,66
DA:1249,9
DA:1251,9
DA:1252,9
DA:1253,9
DA:1814,120
DA:1823,120
DA:1824,240
DA:1827,120
DA:1829,120
DA:1830,120
DA:1831,120
DA:1832,120
DA:1926,202
DA:1930,307
DA:1932,105
DA:1933,105
DA:1934,105
DA:1935,105
DA:1937,202
DA:1943,24
DA:1947,28
DA:1948,4
DA:1949,0
DA:1951,4
DA:1952,24
DA:1959,124
DA:1963,300
DA:1964,176
DA:1965,88
DA:1967,88
DA:1968,124
DA:1975,24
DA:1979,33
DA:1980,9
DA:1981,9
DA:1983,0
DA:1984,24
DA:2009,24
DA:2012,24
DA:2013,24
DA:2014,31
DA:2016,31
DA:2017,2
DA:2018,29
DA:2019,5
DA:2022,24
DA:2023,24
DA:2024,24
DA:2025,24
DA:2026,24
DA:2027,24
DA:2028,48
DA:2031,0
DA:2032,0
DA:2106,120
DA:2110,120
DA:2111,120
DA:2112,120
DA:2113,216
DA:2115,96
DA:2116,96
DA:2117,96
DA:2119,120
DA:2120,120
DA:2122,69
DA:2123,66
DA:2125,3
DA:2127,54
DA:2128,54
DA:2129,0
DA:2160,120
DA:2169,120
DA:2171,120
DA:2173,120
DA:2174,120
DA:2176,120
DA:2179,0
DA:2487,15
DA:2492,15
DA:2493,15
DA:2494,15
DA:2495,15
DA:2496,15
DA:2501,24
DA:2504,24
DA:2505,9
DA:2507,30
DA:2508,15
DA:2509,24
DA:2514,24
DA:2517,24
DA:2518,24
DA:2519,24
DA:2520,48
DA:2540,124
DA:2543,124
DA:2544,248
DA:2545,80
DA:2546,328
LF:206
LH:200
end_of_record
TN:
SF:/usr/include/c++/14/bits/stl_uninitialized.h
FNL:0,1067,1077
FNA:0,131,_ZSt19__relocate_object_aIN9GraphAlgo4EdgeES1_SaIS1_EEvPT_PT0_RT1_
FNA:0,17,_ZSt19__relocate_object_aISt5tupleIJiiiEES1_SaIS1_EEvPT_PT0_RT1_
FNA:0,4,_ZSt19__relocate_object_aISt6vectorIiSaIiEES2_SaIS2_EEvPT_PT0_RT1_
FNL:1,1089,1106
FNA:1,287,_ZSt14__relocate_a_1IPN9GraphAlgo4EdgeES2_SaIS1_EET0_T_S5_S4_RT1_
FNA:1,11,_ZSt14__relocate_a_1IPSt5tupleIJiiiEES2_SaIS1_EET0_T_S5_S4_RT1_
FNA:1,6,_ZSt14__relocate_a_1IPSt6vectorIiSaIiEES3_SaIS2_EET0_T_S6_S5_RT1_
FNL:2,1112,1132
FNA:2,22,_ZSt14__relocate_a_1IiiENSt9enable_ifIXsrSt24__is_bitwise_relocatableIT_vE5valueEPS2_E4typeES4_S4_S4_RSaIT0_E
FNL:3,113,128
FNA:3,1067,_ZSt16__do_uninit_copyIN9__gnu_cxx17__normal_iteratorIPKN9GraphAlgo4EdgeESt6vectorIS3_SaIS3_EEEEPS3_ET0_T_SC_SB_
FNA:3,241,_ZSt16__do_uninit_copyIN9__gnu_cxx17__normal_iteratorIPKSt6vectorIN9GraphAlgo4EdgeESaIS4_EES2_IS6_SaIS6_EEEEPS6_ET0_T_SE_SD_
FNA:3,0,_ZSt16__do_uninit_copyIPN9GraphAlgo4EdgeES2_ET0_T_S4_S3_
FNA:3,0,_ZSt16__do_uninit_copyIPSt6vectorIN9GraphAlgo4EdgeESaIS2_EES5_ET0_T_S7_S6_
FNL:4,1139,1148
FNA:4,287,_ZSt12__relocate_aIPN9GraphAlgo4EdgeES2_SaIS1_EET0_T_S5_S4_RT1_
FNA:4,11,_ZSt12__relocate_aIPSt5tupleIJiiiEES2_SaIS1_EET0_T_S5_S4_RT1_
FNA:4,6,_ZSt12__relocate_aIPSt6vectorIiSaIiEES3_SaIS2_EET0_T_S6_S5_RT1_
FNA:4,22,_ZSt12__relocate_aIPiS0_SaIiEET0_T_S3_S2_RT1_
FNL:5,135,137
FNA:5,1067,_ZNSt20__uninitialized_copyILb0EE13__uninit_copyIN9__gnu_cxx17__normal_iteratorIPKN9GraphAlgo4EdgeESt6vectorIS5_SaIS5_EEEEPS5_EET0_T_SE_SD_
FNA:5,241,_ZNSt20__uninitialized_copyILb0EE13__uninit_copyIN9__gnu_cxx17__normal_iteratorIPKSt6vectorIN9GraphAlgo4EdgeESaIS6_EES4_IS8_SaIS8_EEEEPS8_EET0_T_SG_SF_
FNA:5,0,_ZNSt20__uninitialized_copyILb0EE13__uninit_copyIPN9GraphAlgo4EdgeES4_EET0_T_S6_S5_
FNA:5,0,_ZNSt20__uninitialized_copyILb0EE13__uninit_copyIPSt6vectorIN9GraphAlgo4EdgeESaIS4_EES7_EET0_T_S9_S8_
FNL:6,145,147
FNA:6,27,_ZNSt20__uninitialized_copyILb1EE13__uninit_copyIN9__gnu_cxx17__normal_iteratorIPKiSt6vectorIiSaIiEEEEPiEET0_T_SC_SB_
FNA:6,0,_ZNSt20__uninitialized_copyILb1EE13__uninit_copyIPiS2_EET0_T_S4_S3_
FNL:7,163,186
FNA:7,1067,_ZSt18uninitialized_copyIN9__gnu_cxx17__normal_iteratorIPKN9GraphAlgo4EdgeESt6vectorIS3_SaIS3_EEEEPS3_ET0_T_SC_SB_
FNA:7,241,_ZSt18uninitialized_copyIN9__gnu_cxx17__normal_iteratorIPKSt6vectorIN9GraphAlgo4EdgeESaIS4_EES2_IS6_SaIS6_EEEEPS6_ET0_T_SE_SD_
FNA:7,27,_ZSt18uninitialized_copyIN9__gnu_cxx17__normal_iteratorIPKiSt6vectorIiSaIiEEEEPiET0_T_SA_S9_
FNA:7,0,_ZSt18uninitialized_copyIPN9GraphAlgo4EdgeES2_ET0_T_S4_S3_
FNA:7,0,_ZSt18uninitialized_copyIPSt6vectorIN9GraphAlgo4EdgeESaIS2_EES5_ET0_T_S7_S6_
FNA:7,0,_ZSt18uninitialized_copyIPiS0_ET0_T_S2_S1_
FNL:8,261,275
FNA:8,3,_ZSt18__do_uninit_fill_nIPSt6vectorIiSaIiEEmS2_ET_S4_T0_RKT1_
FNL:9,282,284
FNA:9,3,_ZNSt22__uninitialized_fill_nILb0EE15__uninit_fill_nIPSt6vectorIiSaIiEEmS4_EET_S6_T0_RKT1_
FNL:10,292,294
FNA:10,3,_ZNSt22__uninitialized_fill_nILb1EE15__uninit_fill_nIPimiEET_S3_T0_RKT1_
FNL:11,312,328
FNA:11,3,_ZSt20uninitialized_fill_nIPSt6vectorIiSaIiEEmS2_ET_S4_T0_RKT1_
FNA:11,3,_ZSt20uninitialized_fill_nIPimiET_S1_T0_RKT1_
FNL:12,366,374
FNA:12,1067,_ZSt22__uninitialized_copy_aIN9__gnu_cxx17__normal_iteratorIPKN9GraphAlgo4EdgeESt6vectorIS3_SaIS3_EEEEPS3_S3_ET0_T_SC_SB_RSaIT1_E
FNA:12,241,_ZSt22__uninitialized_copy_aIN9__gnu_cxx17__normal_iteratorIPKSt6vectorIN9GraphAlgo4EdgeESaIS4_EES2_IS6_SaIS6_EEEEPS6_S6_ET0_T_SE_SD_RSaIT1_E
FNA:12,27,_ZSt22__uninitialized_copy_aIN9__gnu_cxx17__normal_iteratorIPKiSt6vectorIiSaIiEEEEPiiET0_T_SA_S9_RSaIT1_E
FNA:12,0,_ZSt22__uninitialized_copy_aIPN9GraphAlgo4EdgeES2_S1_ET0_T_S4_S3_RSaIT1_E
FNA:12,0,_ZSt22__uninitialized_copy_aIPSt6vectorIN9GraphAlgo4EdgeESaIS2_EES5_S4_ET0_T_S7_S6_RSaIT1_E
FNA:12,0,_ZSt22__uninitialized_copy_aIPiS0_iET0_T_S2_S1_RSaIT1_E
FNL:13,465,473
FNA:13,3,_ZSt24__uninitialized_fill_n_aIPSt6vectorIiSaIiEEmS2_S2_ET_S4_T0_RKT1_RSaIT2_E
FNA:13,3,_ZSt24__uninitialized_fill_n_aIPimiiET_S1_T0_RKT1_RSaIT2_E
FNL:14,637,651
FNA:14,3,_ZNSt27__uninitialized_default_n_1ILb0EE18__uninit_default_nIPSt3setIiSt4lessIiESaIiEEmEET_S8_T0_
FNA:14,74,_ZNSt27__uninitialized_default_n_1ILb0EE18__uninit_default_nIPSt6vectorIN9GraphAlgo4EdgeESaIS4_EEmEET_S8_T0_
FNL:15,660,671
FNA:15,6,_ZNSt27__uninitialized_default_n_1ILb1EE18__uninit_default_nIPimEET_S3_T0_
FNL:16,696,713
FNA:16,3,_ZSt25__uninitialized_default_nIPSt3setIiSt4lessIiESaIiEEmET_S6_T0_
FNA:16,74,_ZSt25__uninitialized_default_nIPSt6vectorIN9GraphAlgo4EdgeESaIS2_EEmET_S6_T0_
FNA:16,6,_ZSt25__uninitialized_default_nIPimET_S1_T0_
FNL:17,777,779
FNA:17,3,_ZSt27__uninitialized_default_n_aIPSt3setIiSt4lessIiESaIiEEmS4_ET_S6_T0_RSaIT1_E
FNA:17,74,_ZSt27__uninitialized_default_n_aIPSt6vectorIN9GraphAlgo4EdgeESaIS2_EEmS4_ET_S6_T0_RSaIT1_E
FNA:17,6,_ZSt27__uninitialized_default_n_aIPimiET_S1_T0_RSaIT1_E
FNF:18
FNH:18
DA:113,1308
DA:116,1308
DA:119,3915
DA:120,2607
DA:121,1308
DA:123,0
DA:125,0
DA:126,0
DA:135,1308
DA:137,1308
DA:145,27
DA:147,27
DA:163,1335
DA:174,1335
DA:181,1335
DA:185,1335
DA:261,3
DA:263,3
DA:266,18
DA:267,15
DA:268,3
DA:270,0
DA:272,0
DA:273,0
DA:282,3
DA:284,3
DA:292,3
DA:294,3
DA:312,6
DA:319,6
DA:327,6
DA:366,1335
DA:373,1335
DA:465,6
DA:472,6
DA:637,77
DA:639,77
DA:642,303
DA:643,226
DA:644,77
DA:660,6
DA:662,6
DA:665,6
DA:666,6
DA:667,6
DA:668,6
DA:670,6
DA:696,83
DA:707,83
DA:712,83
DA:777,83
DA:779,83
DA:1067,152
DA:1075,152
DA:1076,152
DA:1077,152
DA:1089,304
DA:1101,304
DA:1102,456
DA:1103,152
DA:1105,304
DA:1112,22
DA:1116,22
DA:1117,22
DA:1129,12
DA:1131,22
DA:1139,326
DA:1145,326
DA:1147,326
LF:69
LH:63
end_of_record
TN:
SF:/usr/include/c++/14/bits/stl_vector.h
FNL:0,104,107
FNA:0,4,_ZNSt12_Vector_baseIiSaIiEE17_Vector_impl_dataC2EOS2_
FNL:1,1078,1082
FNA:1,0,_ZNKSt6vectorIN9GraphAlgo4EdgeESaIS1_EE8capacityEv
FNA:1,17,_ZNKSt6vectorIS_IN9GraphAlgo4EdgeESaIS1_EESaIS3_EE8capacityEv
FNA:1,5,_ZNKSt6vectorIiSaIiEE8capacityEv
FNL:2,1128,1132
FNA:2,287,_ZNSt6vectorIS_IN9GraphAlgo4EdgeESaIS1_EESaIS3_EEixEm
FNA:2,45,_ZNSt6vectorIS_IiSaIiEESaIS1_EEixEm
FNA:2,24,_ZNSt6vectorISt3setIiSt4lessIiESaIiEESaIS4_EEixEm
FNA:2,271,_ZNSt6vectorIiSaIiEEixEm
FNL:3,1147,1151
FNA:3,582,_ZNKSt6vectorIS_IN9GraphAlgo4EdgeESaIS1_EESaIS3_EEixEm
FNA:3,39,_ZNKSt6vectorIS_IiSaIiEESaIS1_EEixEm
FNA:3,109,_ZNKSt6vectorISt3setIiSt4lessIiESaIiEESaIS4_EEixEm
FNA:3,39,_ZNKSt6vectorIiSaIiEEixEm
FNL:4,1235,1239
FNA:4,287,_ZNSt6vectorIN9GraphAlgo4EdgeESaIS1_EE4backEv
FNA:4,14,_ZNSt6vectorISt5tupleIJiiiEESaIS1_EE4backEv
FNL:5,1283,1295
FNA:5,7,_ZNSt6vectorIS_IiSaIiEESaIS1_EE9push_backERKS1_
FNA:5,39,_ZNSt6vectorIiSaIiEE9push_backERKi
FNL:6,1300,1301
FNA:6,14,_ZNSt6vectorISt5tupleIJiiiEESaIS1_EE9push_backEOS1_
FNL:7,1324,1330
FNA:7,24,_ZNSt6vectorIiSaIiEE8pop_backEv
FNL:8,136,142
FNA:8,211,_ZNSt12_Vector_baseIN9GraphAlgo4EdgeESaIS1_EE12_Vector_implC2Ev
FNA:8,3,_ZNSt12_Vector_baseISt5tupleIJiiiEESaIS1_EE12_Vector_implC2Ev
FNA:8,3,_ZNSt12_Vector_baseISt6vectorIiSaIiEESaIS2_EE12_Vector_implC2Ev
FNA:8,13,_ZNSt12_Vector_baseIiSaIiEE12_Vector_implC2Ev
FNL:9,145,147
FNA:9,1067,_ZNSt12_Vector_baseIN9GraphAlgo4EdgeESaIS1_EE12_Vector_implC2ERKS2_
FNA:9,3,_ZNSt12_Vector_baseISt3setIiSt4lessIiESaIiEESaIS4_EE12_Vector_implC2ERKS5_
FNA:9,298,_ZNSt12_Vector_baseISt6vectorIN9GraphAlgo4EdgeESaIS2_EESaIS4_EE12_Vector_implC2ERKS5_
FNA:9,3,_ZNSt12_Vector_baseISt6vectorIiSaIiEESaIS2_EE12_Vector_implC2ERKS3_
FNA:9,31,_ZNSt12_Vector_baseIiSaIiEE12_Vector_implC2ERKS0_
FNL:10,153,155
FNA:10,4,_ZNSt12_Vector_baseIiSaIiEE12_Vector_implC2EOS2_
FNL:11,1607,1608
FNA:11,0,_ZNSt6vectorIN9GraphAlgo4EdgeESaIS1_EE5clearEv
FNA:11,0,_ZNSt6vectorIS_IN9GraphAlgo4EdgeESaIS1_EESaIS3_EE5clearEv
FNA:11,0,_ZNSt6vectorIiSaIiEE5clearEv
FNL:12,1618,1633
FNA:12,0,_ZNSt6vectorIN9GraphAlgo4EdgeESaIS1_EE20_M_allocate_and_copyIN9__gnu_cxx17__normal_iteratorIPKS1_S3_EEEEPS1_mT_SB_
FNA:12,17,_ZNSt6vectorIS_IN9GraphAlgo4EdgeESaIS1_EESaIS3_EE20_M_allocate_and_copyIN9__gnu_cxx17__normal_iteratorIPKS3_S5_EEEEPS3_mT_SD_
FNA:12,5,_ZNSt6vectorIiSaIiEE20_M_allocate_and_copyIN9__gnu_cxx17__normal_iteratorIPKiS1_EEEEPimT_S9_
FNL:13,1706,1711
FNA:13,3,_ZNSt6vectorIS_IiSaIiEESaIS1_EE18_M_fill_initializeEmRKS1_
FNA:13,3,_ZNSt6vectorIiSaIiEE18_M_fill_initializeEmRKi
FNL:14,1717,1722
FNA:14,74,_ZNSt6vectorIS_IN9GraphAlgo4EdgeESaIS1_EESaIS3_EE21_M_default_initializeEm
FNA:14,3,_ZNSt6vectorISt3setIiSt4lessIiESaIiEESaIS4_EE21_M_default_initializeEm
FNA:14,6,_ZNSt6vectorIiSaIiEE21_M_default_initializeEm
FNL:15,1906,1913
FNA:15,287,_ZNKSt6vectorIN9GraphAlgo4EdgeESaIS1_EE12_M_check_lenEmPKc
FNA:15,6,_ZNKSt6vectorIS_IiSaIiEESaIS1_EE12_M_check_lenEmPKc
FNA:15,11,_ZNKSt6vectorISt5tupleIJiiiEESaIS1_EE12_M_check_lenEmPKc
FNA:15,22,_ZNKSt6vectorIiSaIiEE12_M_check_lenEmPKc
FNL:16,1917,1923
FNA:16,74,_ZNSt6vectorIS_IN9GraphAlgo4EdgeESaIS1_EESaIS3_EE17_S_check_init_lenEmRKS4_
FNA:16,3,_ZNSt6vectorIS_IiSaIiEESaIS1_EE17_S_check_init_lenEmRKS2_
FNA:16,3,_ZNSt6vectorISt3setIiSt4lessIiESaIiEESaIS4_EE17_S_check_init_lenEmRKS5_
FNA:16,9,_ZNSt6vectorIiSaIiEE17_S_check_init_lenEmRKS0_
FNL:17,1926,1935
FNA:17,574,_ZNSt6vectorIN9GraphAlgo4EdgeESaIS1_EE11_S_max_sizeERKS2_
FNA:17,74,_ZNSt6vectorIS_IN9GraphAlgo4EdgeESaIS1_EESaIS3_EE11_S_max_sizeERKS4_
FNA:17,15,_ZNSt6vectorIS_IiSaIiEESaIS1_EE11_S_max_sizeERKS2_
FNA:17,3,_ZNSt6vectorISt3setIiSt4lessIiESaIiEESaIS4_EE11_S_max_sizeERKS5_
FNA:17,22,_ZNSt6vectorISt5tupleIJiiiEESaIS1_EE11_S_max_sizeERKS2_
FNA:17,53,_ZNSt6vectorIiSaIiEE11_S_max_sizeERKS0_
FNL:18,1943,1952
FNA:18,0,_ZNSt6vectorIN9GraphAlgo4EdgeESaIS1_EE15_M_erase_at_endEPS1_
FNA:18,0,_ZNSt6vectorIS_IN9GraphAlgo4EdgeESaIS1_EESaIS3_EE15_M_erase_at_endEPS3_
FNA:18,0,_ZNSt6vectorIiSaIiEE15_M_erase_at_endEPi
FNL:19,300,301
FNA:19,408,_ZNSt12_Vector_baseIN9GraphAlgo4EdgeESaIS1_EE19_M_get_Tp_allocatorEv
FNA:19,6,_ZNSt12_Vector_baseISt3setIiSt4lessIiESaIiEESaIS4_EE19_M_get_Tp_allocatorEv
FNA:19,14,_ZNSt12_Vector_baseISt5tupleIJiiiEESaIS1_EE19_M_get_Tp_allocatorEv
FNA:19,108,_ZNSt12_Vector_baseISt6vectorIN9GraphAlgo4EdgeESaIS2_EESaIS4_EE19_M_get_Tp_allocatorEv
FNA:19,15,_ZNSt12_Vector_baseISt6vectorIiSaIiEESaIS2_EE19_M_get_Tp_allocatorEv
FNA:19,111,_ZNSt12_Vector_baseIiSaIiEE19_M_get_Tp_allocatorEv
FNL:20,305,306
FNA:20,1641,_ZNKSt12_Vector_baseIN9GraphAlgo4EdgeESaIS1_EE19_M_get_Tp_allocatorEv
FNA:20,22,_ZNKSt12_Vector_baseISt5tupleIJiiiEESaIS1_EE19_M_get_Tp_allocatorEv
FNA:20,224,_ZNKSt12_Vector_baseISt6vectorIN9GraphAlgo4EdgeESaIS2_EESaIS4_EE19_M_get_Tp_allocatorEv
FNA:20,12,_ZNKSt12_Vector_baseISt6vectorIiSaIiEESaIS2_EE19_M_get_Tp_allocatorEv
FNA:20,66,_ZNKSt12_Vector_baseIiSaIiEE19_M_get_Tp_allocatorEv
FNL:21,314,314
FNA:21,211,_ZNSt12_Vector_baseIN9GraphAlgo4EdgeESaIS1_EEC2Ev
FNA:21,3,_ZNSt12_Vector_baseISt5tupleIJiiiEESaIS1_EEC2Ev
FNA:21,3,_ZNSt12_Vector_baseISt6vectorIiSaIiEESaIS2_EEC2Ev
FNA:21,13,_ZNSt12_Vector_baseIiSaIiEEC2Ev
FNL:22,332,334
FNA:22,1067,_ZNSt12_Vector_baseIN9GraphAlgo4EdgeESaIS1_EEC2EmRKS2_
FNA:22,3,_ZNSt12_Vector_baseISt3setIiSt4lessIiESaIiEESaIS4_EEC2EmRKS5_
FNA:22,298,_ZNSt12_Vector_baseISt6vectorIN9GraphAlgo4EdgeESaIS2_EESaIS4_EEC2EmRKS5_
FNA:22,3,_ZNSt12_Vector_baseISt6vectorIiSaIiEESaIS2_EEC2EmRKS3_
FNA:22,31,_ZNSt12_Vector_baseIiSaIiEEC2EmRKS0_
FNL:23,337,337
FNA:23,4,_ZNSt12_Vector_baseIiSaIiEEC2EOS1_
FNL:24,366,370
FNA:24,195,_ZNSt12_Vector_baseIN9GraphAlgo4EdgeESaIS1_EED2Ev
FNA:24,3,_ZNSt12_Vector_baseISt3setIiSt4lessIiESaIiEESaIS4_EED2Ev
FNA:24,3,_ZNSt12_Vector_baseISt5tupleIJiiiEESaIS1_EED2Ev
FNA:24,51,_ZNSt12_Vector_baseISt6vectorIN9GraphAlgo4EdgeESaIS2_EESaIS4_EED2Ev
FNA:24,6,_ZNSt12_Vector_baseISt6vectorIiSaIiEESaIS2_EED2Ev
FNA:24,48,_ZNSt12_Vector_baseIiSaIiEED2Ev
FNL:25,377,381
FNA:25,1354,_ZNSt12_Vector_baseIN9GraphAlgo4EdgeESaIS1_EE11_M_allocateEm
FNA:25,3,_ZNSt12_Vector_baseISt3setIiSt4lessIiESaIiEESaIS4_EE11_M_allocateEm
FNA:25,11,_ZNSt12_Vector_baseISt5tupleIJiiiEESaIS1_EE11_M_allocateEm
FNA:25,315,_ZNSt12_Vector_baseISt6vectorIN9GraphAlgo4EdgeESaIS2_EESaIS4_EE11_M_allocateEm
FNA:25,9,_ZNSt12_Vector_baseISt6vectorIiSaIiEESaIS2_EE11_M_allocateEm
FNA:25,58,_ZNSt12_Vector_baseIiSaIiEE11_M_allocateEm
FNL:26,385,390
FNA:26,195,_ZNSt12_Vector_baseIN9GraphAlgo4EdgeESaIS1_EE13_M_deallocateEPS1_m
FNA:26,3,_ZNSt12_Vector_baseISt3setIiSt4lessIiESaIiEESaIS4_EE13_M_deallocateEPS4_m
FNA:26,3,_ZNSt12_Vector_baseISt5tupleIJiiiEESaIS1_EE13_M_deallocateEPS1_m
FNA:26,54,_ZNSt12_Vector_baseISt6vectorIN9GraphAlgo4EdgeESaIS2_EESaIS4_EE13_M_deallocateEPS4_m
FNA:26,6,_ZNSt12_Vector_baseISt6vectorIiSaIiEESaIS2_EE13_M_deallocateEPS2_m
FNA:26,53,_ZNSt12_Vector_baseIiSaIiEE13_M_deallocateEPim
FNL:27,396,401
FNA:27,1067,_ZNSt12_Vector_baseIN9GraphAlgo4EdgeESaIS1_EE17_M_create_storageEm
FNA:27,3,_ZNSt12_Vector_baseISt3setIiSt4lessIiESaIiEESaIS4_EE17_M_create_storageEm
FNA:27,298,_ZNSt12_Vector_baseISt6vectorIN9GraphAlgo4EdgeESaIS2_EESaIS4_EE17_M_create_storageEm
FNA:27,3,_ZNSt12_Vector_baseISt6vectorIiSaIiEESaIS2_EE17_M_create_storageEm
FNA:27,31,_ZNSt12_Vector_baseIiSaIiEE17_M_create_storageEm
FNL:28,504,514
FNA:28,287,_ZNSt6vectorIN9GraphAlgo4EdgeESaIS1_EE11_S_relocateEPS1_S4_S4_RS2_
FNA:28,6,_ZNSt6vectorIS_IiSaIiEESaIS1_EE11_S_relocateEPS1_S4_S4_RS2_
FNA:28,11,_ZNSt6vectorISt5tupleIJiiiEESaIS1_EE11_S_relocateEPS1_S4_S4_RS2_
FNA:28,22,_ZNSt6vectorIiSaIiEE11_S_relocateEPiS2_S2_RS0_
FNL:29,531,531
FNA:29,211,_ZNSt6vectorIN9GraphAlgo4EdgeESaIS1_EEC2Ev
FNA:29,3,_ZNSt6vectorIS_IiSaIiEESaIS1_EEC2Ev
FNA:29,3,_ZNSt6vectorISt5tupleIJiiiEESaIS1_EEC2Ev
FNA:29,13,_ZNSt6vectorIiSaIiEEC2Ev
FNL:30,556,558
FNA:30,74,_ZNSt6vectorIS_IN9GraphAlgo4EdgeESaIS1_EESaIS3_EEC2EmRKS4_
FNA:30,3,_ZNSt6vectorISt3setIiSt4lessIiESaIiEESaIS4_EEC2EmRKS5_
FNA:30,6,_ZNSt6vectorIiSaIiEEC2EmRKS0_
FNL:31,569,572
FNA:31,3,_ZNSt6vectorIS_IiSaIiEESaIS1_EEC2EmRKS1_RKS2_
FNA:31,3,_ZNSt6vectorIiSaIiEEC2EmRKiRKS0_
FNL:32,601,609
FNA:32,1067,_ZNSt6vectorIN9GraphAlgo4EdgeESaIS1_EEC2ERKS3_
FNA:32,224,_ZNSt6vectorIS_IN9GraphAlgo4EdgeESaIS1_EESaIS3_EEC2ERKS5_
FNA:32,22,_ZNSt6vectorIiSaIiEEC2ERKS1_
FNL:33,620,620
FNA:33,4,_ZNSt6vectorIiSaIiEEC2EOS1_
FNL:34,733,738
FNA:34,195,_ZNSt6vectorIN9GraphAlgo4EdgeESaIS1_EED2Ev
FNA:34,51,_ZNSt6vectorIS_IN9GraphAlgo4EdgeESaIS1_EESaIS3_EED2Ev
FNA:34,6,_ZNSt6vectorIS_IiSaIiEESaIS1_EED2Ev
FNA:34,3,_ZNSt6vectorISt3setIiSt4lessIiESaIiEESaIS4_EED2Ev
FNA:34,3,_ZNSt6vectorISt5tupleIJiiiEESaIS1_EED2Ev
FNA:34,48,_ZNSt6vectorIiSaIiEED2Ev
FNL:35,873,874
FNA:35,287,_ZNSt6vectorIN9GraphAlgo4EdgeESaIS1_EE5beginEv
FNA:35,0,_ZNSt6vectorIS_IN9GraphAlgo4EdgeESaIS1_EESaIS3_EE5beginEv
FNA:35,9,_ZNSt6vectorIS_IiSaIiEESaIS1_EE5beginEv
FNA:35,17,_ZNSt6vectorISt5tupleIJiiiEESaIS1_EE5beginEv
FNA:35,31,_ZNSt6vectorIiSaIiEE5beginEv
FNL:36,883,884
FNA:36,1649,_ZNKSt6vectorIN9GraphAlgo4EdgeESaIS1_EE5beginEv
FNA:36,241,_ZNKSt6vectorIS_IN9GraphAlgo4EdgeESaIS1_EESaIS3_EE5beginEv
FNA:36,34,_ZNKSt6vectorIiSaIiEE5beginEv
FNL:37,893,894
FNA:37,574,_ZNSt6vectorIN9GraphAlgo4EdgeESaIS1_EE3endEv
FNA:37,0,_ZNSt6vectorIS_IN9GraphAlgo4EdgeESaIS1_EESaIS3_EE3endEv
FNA:37,9,_ZNSt6vectorIS_IiSaIiEESaIS1_EE3endEv
FNA:37,31,_ZNSt6vectorISt5tupleIJiiiEESaIS1_EE3endEv
FNA:37,31,_ZNSt6vectorIiSaIiEE3endEv
FNL:38,903,904
FNA:38,1649,_ZNKSt6vectorIN9GraphAlgo4EdgeESaIS1_EE3endEv
FNA:38,241,_ZNKSt6vectorIS_IN9GraphAlgo4EdgeESaIS1_EESaIS3_EE3endEv
FNA:38,34,_ZNKSt6vectorIiSaIiEE3endEv
FNL:39,98,100
FNA:39,1278,_ZNSt12_Vector_baseIN9GraphAlgo4EdgeESaIS1_EE17_Vector_impl_dataC2Ev
FNA:39,3,_ZNSt12_Vector_baseISt3setIiSt4lessIiESaIiEESaIS4_EE17_Vector_impl_dataC2Ev
FNA:39,3,_ZNSt12_Vector_baseISt5tupleIJiiiEESaIS1_EE17_Vector_impl_dataC2Ev
FNA:39,298,_ZNSt12_Vector_baseISt6vectorIN9GraphAlgo4EdgeESaIS2_EESaIS4_EE17_Vector_impl_dataC2Ev
FNA:39,6,_ZNSt12_Vector_baseISt6vectorIiSaIiEESaIS2_EE17_Vector_impl_dataC2Ev
FNA:39,44,_ZNSt12_Vector_baseIiSaIiEE17_Vector_impl_dataC2Ev
FNL:40,992,993
FNA:40,2215,_ZNKSt6vectorIN9GraphAlgo4EdgeESaIS1_EE4sizeEv
FNA:40,241,_ZNKSt6vectorIS_IN9GraphAlgo4EdgeESaIS1_EESaIS3_EE4sizeEv
FNA:40,33,_ZNKSt6vectorIS_IiSaIiEESaIS1_EE4sizeEv
FNA:40,44,_ZNKSt6vectorISt5tupleIJiiiEESaIS1_EE4sizeEv
FNA:40,138,_ZNKSt6vectorIiSaIiEE4sizeEv
FNL:41,998,999
FNA:41,574,_ZNKSt6vectorIN9GraphAlgo4EdgeESaIS1_EE8max_sizeEv
FNA:41,12,_ZNKSt6vectorIS_IiSaIiEESaIS1_EE8max_sizeEv
FNA:41,22,_ZNKSt6vectorISt5tupleIJiiiEESaIS1_EE8max_sizeEv
FNA:41,44,_ZNKSt6vectorIiSaIiEE8max_sizeEv
FNF:42
FNH:40
DA:98,1632
DA:99,1632
DA:100,1632
DA:104,4
DA:105,4
DA:106,4
DA:107,4
DA:136,230
DA:141,230
DA:142,230
DA:145,1402
DA:146,1402
DA:147,1402
DA:153,4
DA:154,8
DA:155,4
DA:300,662
DA:301,662
DA:305,1965
DA:306,1965
DA:314,230
DA:332,1402
DA:333,1402
DA:334,1402
DA:337,4
DA:366,306
DA:368,306
DA:369,306
DA:370,306
DA:377,1750
DA:380,3321
DA:385,314
DA:388,314
DA:389,277
DA:390,314
DA:396,1402
DA:398,1402
DA:399,1402
DA:400,1402
DA:401,1402
DA:504,326
DA:509,326
DA:531,230
DA:556,83
DA:557,83
DA:558,83
DA:569,6
DA:571,6
DA:572,6
DA:601,1313
DA:603,2626
DA:605,1313
DA:606,1313
DA:608,1313
DA:609,1313
DA:620,4
DA:733,306
DA:735,306
DA:736,306
DA:738,306
DA:873,344
DA:874,344
DA:883,1924
DA:884,1924
DA:893,645
DA:894,645
DA:903,1924
DA:904,1924
DA:992,2671
DA:993,2671
DA:998,652
DA:999,652
DA:1078,22
DA:1080,22
DA:1081,22
DA:1128,627
DA:1131,627
DA:1147,769
DA:1150,769
DA:1235,301
DA:1238,301
DA:1283,46
DA:1285,46
DA:1288,18
DA:1290,18
DA:1294,28
DA:1295,46
DA:1300,14
DA:1301,14
DA:1324,24
DA:1327,24
DA:1328,24
DA:1330,24
DA:1607,0
DA:1608,0
DA:1618,22
DA:1621,22
DA:1624,22
DA:1625,22
DA:1626,22
DA:1628,0
DA:1630,0
DA:1631,0
DA:1706,6
DA:1708,6
DA:1709,6
DA:1710,6
DA:1711,6
DA:1717,83
DA:1719,83
DA:1720,83
DA:1721,83
DA:1722,83
DA:1906,326
DA:1908,326
DA:1909,0
DA:1911,326
DA:1912,326
DA:1917,89
DA:1919,89
DA:1920,0
DA:1922,89
DA:1926,741
DA:1931,741
DA:1933,741
DA:1934,741
DA:1943,0
DA:1945,0
DA:1947,0
DA:1948,0
DA:1949,0
DA:1952,0
LF:132
LH:119
end_of_record
TN:
SF:/usr/include/c++/14/bits/uniform_int_dist.h
FNL:0,104,109
FNA:0,2,_ZNSt24uniform_int_distributionIiE10param_typeC2Eii
FNL:1,112,113
FNA:1,64,_ZNKSt24uniform_int_distributionIiE10param_type1aEv
FNL:2,116,117
FNA:2,32,_ZNKSt24uniform_int_distributionIiE10param_type1bEv
FNL:3,142,146
FNA:3,2,_ZNSt24uniform_int_distributionIiEC2Eii
FNL:4,203,204
FNA:4,32,_ZNSt24uniform_int_distributionIiEclISt23mersenne_twister_engineImLm32ELm624ELm397ELm31ELm2567483615ELm11ELm4294967295ELm7ELm2636928640ELm15ELm4022730752ELm18ELm1812433253EEEEiRT_
FNL:5,257,281
FNA:5,32,_ZNSt24uniform_int_distributionIiE5_S_ndImSt23mersenne_twister_engineImLm32ELm624ELm397ELm31ELm2567483615ELm11ELm4294967295ELm7ELm2636928640ELm15ELm4022730752ELm18ELm1812433253EEjEET1_RT0_S4_
FNL:6,287,373
FNA:6,32,_ZNSt24uniform_int_distributionIiEclISt23mersenne_twister_engineImLm32ELm624ELm397ELm31ELm2567483615ELm11ELm4294967295ELm7ELm2636928640ELm15ELm4022730752ELm18ELm1812433253EEEEiRT_RKNS0_10param_typeE
FNF:7
FNH:7
DA:104,2
DA:106,2
DA:108,2
DA:109,2
DA:112,64
DA:113,64
DA:116,32
DA:117,32
DA:142,2
DA:145,2
DA:146,2
DA:203,32
DA:204,32
DA:257,32
DA:269,32
DA:270,32
DA:271,32
DA:273,0
DA:274,0
DA:276,0
DA:277,0
DA:280,32
DA:287,32
DA:295,32
DA:296,32
DA:299,32
DA:301,32
DA:302,32
DA:305,32
DA:309,32
DA:327,32
DA:328,32
DA:342,0
DA:362,0
DA:363,0
DA:364,0
DA:365,0
DA:367,0
DA:370,0
DA:372,32
LF:40
LH:29
end_of_record
TN:
SF:/usr/include/c++/14/bits/unique_lock.h
FNL:0,109,113
FNA:0,32,_ZNSt11unique_lockISt5mutexED2Ev
FNL:1,139,150
FNA:1,32,_ZNSt11unique_lockISt5mutexE4lockEv
FNL:2,200,209
FNA:2,32,_ZNSt11unique_lockISt5mutexE6unlockEv
FNL:3,70,75
FNA:3,32,_ZNSt11unique_lockISt5mutexEC2ERS0_
FNF:4
FNH:4
DA:70,32
DA:71,32
DA:73,32
DA:74,32
DA:75,32
DA:109,32
DA:111,32
DA:112,32
DA:113,32
DA:139,32
DA:141,32
DA:142,0
DA:143,32
DA:144,0
DA:147,32
DA:148,32
DA:150,32
DA:200,32
DA:202,32
DA:203,0
DA:204,32
DA:206,32
DA:207,32
DA:209,32
LF:24
LH:21
end_of_record
TN:
SF:/usr/include/c++/14/bits/unique_ptr.h
FNL:0,1076,1077
FNA:0,3,_ZSt11make_uniqueI12MSTAlgorithmJEENSt8__detail9_MakeUniqIT_E15__single_objectEDpOT0_
FNA:0,3,_ZSt11make_uniqueI12SCCAlgorithmJEENSt8__detail9_MakeUniqIT_E15__single_objectEDpOT0_
FNA:0,3,_ZSt11make_uniqueI15CliqueAlgorithmJEENSt8__detail9_MakeUniqIT_E15__single_objectEDpOT0_
FNA:0,3,_ZSt11make_uniqueI16MaxFlowAlgorithmJEENSt8__detail9_MakeUniqIT_E15__single_objectEDpOT0_
FNL:1,168,168
FNA:1,0,_ZNSt15__uniq_ptr_implI17AlgorithmStrategySt14default_deleteIS0_EEC2Ev
FNL:2,170,170
FNA:2,3,_ZNSt15__uniq_ptr_implI12MSTAlgorithmSt14default_deleteIS0_EEC2EPS0_
FNA:2,3,_ZNSt15__uniq_ptr_implI12SCCAlgorithmSt14default_deleteIS0_EEC2EPS0_
FNA:2,3,_ZNSt15__uniq_ptr_implI15CliqueAlgorithmSt14default_deleteIS0_EEC2EPS0_
FNA:2,3,_ZNSt15__uniq_ptr_implI16MaxFlowAlgorithmSt14default_deleteIS0_EEC2EPS0_
FNA:2,10,_ZNSt15__uniq_ptr_implINSt6thread6_StateESt14default_deleteIS1_EEC2EPS1_
FNL:3,174,175
FNA:3,3,_ZNSt15__uniq_ptr_implI17AlgorithmStrategySt14default_deleteIS0_EEC2IS1_I12MSTAlgorithmEEEPS0_OT_
FNA:3,3,_ZNSt15__uniq_ptr_implI17AlgorithmStrategySt14default_deleteIS0_EEC2IS1_I12SCCAlgorithmEEEPS0_OT_
FNA:3,3,_ZNSt15__uniq_ptr_implI17AlgorithmStrategySt14default_deleteIS0_EEC2IS1_I15CliqueAlgorithmEEEPS0_OT_
FNA:3,3,_ZNSt15__uniq_ptr_implI17AlgorithmStrategySt14default_deleteIS0_EEC2IS1_I16MaxFlowAlgorithmEEEPS0_OT_
FNL:4,191,191
FNA:4,12,_ZNSt15__uniq_ptr_implI12MSTAlgorithmSt14default_deleteIS0_EE6_M_ptrEv
FNA:4,12,_ZNSt15__uniq_ptr_implI12SCCAlgorithmSt14default_deleteIS0_EE6_M_ptrEv
FNA:4,12,_ZNSt15__uniq_ptr_implI15CliqueAlgorithmSt14default_deleteIS0_EE6_M_ptrEv
FNA:4,12,_ZNSt15__uniq_ptr_implI16MaxFlowAlgorithmSt14default_deleteIS0_EE6_M_ptrEv
FNA:4,12,_ZNSt15__uniq_ptr_implI17AlgorithmStrategySt14default_deleteIS0_EE6_M_ptrEv
FNA:4,20,_ZNSt15__uniq_ptr_implINSt6thread6_StateESt14default_deleteIS1_EE6_M_ptrEv
FNL:5,193,193
FNA:5,12,_ZNKSt15__uniq_ptr_implI17AlgorithmStrategySt14default_deleteIS0_EE6_M_ptrEv
FNL:6,195,195
FNA:6,3,_ZNSt15__uniq_ptr_implI12MSTAlgorithmSt14default_deleteIS0_EE10_M_deleterEv
FNA:6,3,_ZNSt15__uniq_ptr_implI12SCCAlgorithmSt14default_deleteIS0_EE10_M_deleterEv
FNA:6,3,_ZNSt15__uniq_ptr_implI15CliqueAlgorithmSt14default_deleteIS0_EE10_M_deleterEv
FNA:6,3,_ZNSt15__uniq_ptr_implI16MaxFlowAlgorithmSt14default_deleteIS0_EE10_M_deleterEv
FNA:6,12,_ZNSt15__uniq_ptr_implI17AlgorithmStrategySt14default_deleteIS0_EE10_M_deleterEv
FNA:6,0,_ZNSt15__uniq_ptr_implINSt6thread6_StateESt14default_deleteIS1_EE10_M_deleterEv
FNL:7,209,214
FNA:7,3,_ZNSt15__uniq_ptr_implI12MSTAlgorithmSt14default_deleteIS0_EE7releaseEv
FNA:7,3,_ZNSt15__uniq_ptr_implI12SCCAlgorithmSt14default_deleteIS0_EE7releaseEv
FNA:7,3,_ZNSt15__uniq_ptr_implI15CliqueAlgorithmSt14default_deleteIS0_EE7releaseEv
FNA:7,3,_ZNSt15__uniq_ptr_implI16MaxFlowAlgorithmSt14default_deleteIS0_EE7releaseEv
FNL:8,311,313
FNA:8,3,_ZNSt10unique_ptrI12MSTAlgorithmSt14default_deleteIS0_EEC2IS2_vEEPS0_
FNA:8,3,_ZNSt10unique_ptrI12SCCAlgorithmSt14default_deleteIS0_EEC2IS2_vEEPS0_
FNA:8,3,_ZNSt10unique_ptrI15CliqueAlgorithmSt14default_deleteIS0_EEC2IS2_vEEPS0_
FNA:8,3,_ZNSt10unique_ptrI16MaxFlowAlgorithmSt14default_deleteIS0_EEC2IS2_vEEPS0_
FNA:8,10,_ZNSt10unique_ptrINSt6thread6_StateESt14default_deleteIS1_EEC2IS3_vEEPS1_
FNL:9,353,355
FNA:9,0,_ZNSt10unique_ptrI17AlgorithmStrategySt14default_deleteIS0_EEC2IS2_vEEDn
FNL:10,374,376
FNA:10,3,_ZNSt10unique_ptrI17AlgorithmStrategySt14default_deleteIS0_EEC2I12MSTAlgorithmS1_IS5_EvEEOS_IT_T0_E
FNA:10,3,_ZNSt10unique_ptrI17AlgorithmStrategySt14default_deleteIS0_EEC2I12SCCAlgorithmS1_IS5_EvEEOS_IT_T0_E
FNA:10,3,_ZNSt10unique_ptrI17AlgorithmStrategySt14default_deleteIS0_EEC2I15CliqueAlgorithmS1_IS5_EvEEOS_IT_T0_E
FNA:10,3,_ZNSt10unique_ptrI17AlgorithmStrategySt14default_deleteIS0_EEC2I16MaxFlowAlgorithmS1_IS5_EvEEOS_IT_T0_E
FNL:11,393,401
FNA:11,3,_ZNSt10unique_ptrI12MSTAlgorithmSt14default_deleteIS0_EED2Ev
FNA:11,3,_ZNSt10unique_ptrI12SCCAlgorithmSt14default_deleteIS0_EED2Ev
FNA:11,3,_ZNSt10unique_ptrI15CliqueAlgorithmSt14default_deleteIS0_EED2Ev
FNA:11,3,_ZNSt10unique_ptrI16MaxFlowAlgorithmSt14default_deleteIS0_EED2Ev
FNA:11,12,_ZNSt10unique_ptrI17AlgorithmStrategySt14default_deleteIS0_EED2Ev
FNA:11,10,_ZNSt10unique_ptrINSt6thread6_StateESt14default_deleteIS1_EED2Ev
FNL:12,455,459
FNA:12,12,_ZNKSt10unique_ptrI17AlgorithmStrategySt14default_deleteIS0_EEptEv
FNL:13,464,465
FNA:13,12,_ZNKSt10unique_ptrI17AlgorithmStrategySt14default_deleteIS0_EE3getEv
FNL:14,470,471
FNA:14,3,_ZNSt10unique_ptrI12MSTAlgorithmSt14default_deleteIS0_EE11get_deleterEv
FNA:14,3,_ZNSt10unique_ptrI12SCCAlgorithmSt14default_deleteIS0_EE11get_deleterEv
FNA:14,3,_ZNSt10unique_ptrI15CliqueAlgorithmSt14default_deleteIS0_EE11get_deleterEv
FNA:14,3,_ZNSt10unique_ptrI16MaxFlowAlgorithmSt14default_deleteIS0_EE11get_deleterEv
FNA:14,12,_ZNSt10unique_ptrI17AlgorithmStrategySt14default_deleteIS0_EE11get_deleterEv
FNA:14,0,_ZNSt10unique_ptrINSt6thread6_StateESt14default_deleteIS1_EE11get_deleterEv
FNL:15,489,490
FNA:15,3,_ZNSt10unique_ptrI12MSTAlgorithmSt14default_deleteIS0_EE7releaseEv
FNA:15,3,_ZNSt10unique_ptrI12SCCAlgorithmSt14default_deleteIS0_EE7releaseEv
FNA:15,3,_ZNSt10unique_ptrI15CliqueAlgorithmSt14default_deleteIS0_EE7releaseEv
FNA:15,3,_ZNSt10unique_ptrI16MaxFlowAlgorithmSt14default_deleteIS0_EE7releaseEv
FNL:16,82,82
FNA:16,3,_ZNSt14default_deleteI17AlgorithmStrategyEC2I12MSTAlgorithmvEERKS_IT_E
FNA:16,3,_ZNSt14default_deleteI17AlgorithmStrategyEC2I12SCCAlgorithmvEERKS_IT_E
FNA:16,3,_ZNSt14default_deleteI17AlgorithmStrategyEC2I15CliqueAlgorithmvEERKS_IT_E
FNA:16,3,_ZNSt14default_deleteI17AlgorithmStrategyEC2I16MaxFlowAlgorithmvEERKS_IT_E
FNL:17,87,94
FNA:17,0,_ZNKSt14default_deleteI12MSTAlgorithmEclEPS0_
FNA:17,0,_ZNKSt14default_deleteI12SCCAlgorithmEclEPS0_
FNA:17,0,_ZNKSt14default_deleteI15CliqueAlgorithmEclEPS0_
FNA:17,0,_ZNKSt14default_deleteI16MaxFlowAlgorithmEclEPS0_
FNA:17,12,_ZNKSt14default_deleteI17AlgorithmStrategyEclEPS0_
FNA:17,0,_ZNKSt14default_deleteINSt6thread6_StateEEclEPS1_
FNF:18
FNH:16
DA:82,12
DA:87,12
DA:93,12
DA:94,12
DA:168,0
DA:170,22
DA:174,12
DA:175,12
DA:191,80
DA:193,12
DA:195,24
DA:209,12
DA:211,12
DA:212,12
DA:213,12
DA:311,22
DA:312,22
DA:313,22
DA:353,0
DA:354,0
DA:355,0
DA:374,12
DA:375,12
DA:376,12
DA:393,34
DA:397,34
DA:398,34
DA:399,12
DA:400,34
DA:401,34
DA:455,12
DA:458,12
DA:464,12
DA:465,12
DA:470,24
DA:471,24
DA:489,12
DA:490,12
DA:1076,12
DA:1077,12
LF:40
LH:36
end_of_record
TN:
SF:/usr/include/c++/14/bits/vector.tcc
FNL:0,1069,1096
FNA:0,0,_ZNSt6vectorIbSaIbEE14_M_fill_insertESt13_Bit_iteratormb
FNL:1,111,127
FNA:1,287,_ZNSt6vectorIN9GraphAlgo4EdgeESaIS1_EE12emplace_backIJRiS5_S5_EEERS1_DpOT_
FNA:1,14,_ZNSt6vectorISt5tupleIJiiiEESaIS1_EE12emplace_backIJS1_EEERS1_DpOT_
FNL:2,210,265
FNA:2,0,_ZNSt6vectorIN9GraphAlgo4EdgeESaIS1_EEaSERKS3_
FNA:2,17,_ZNSt6vectorIS_IN9GraphAlgo4EdgeESaIS1_EESaIS3_EEaSERKS5_
FNA:2,5,_ZNSt6vectorIiSaIiEEaSERKS1_
FNL:3,581,695
FNA:3,287,_ZNSt6vectorIN9GraphAlgo4EdgeESaIS1_EE17_M_realloc_appendIJRiS5_S5_EEEvDpOT_
FNA:3,6,_ZNSt6vectorIS_IiSaIiEESaIS1_EE17_M_realloc_appendIJRKS1_EEEvDpOT_
FNA:3,11,_ZNSt6vectorISt5tupleIJiiiEESaIS1_EE17_M_realloc_appendIJS1_EEEvDpOT_
FNA:3,22,_ZNSt6vectorIiSaIiEE17_M_realloc_appendIJRKiEEEvDpOT_
FNL:4,607,609
FNA:4,287,_ZZNSt6vectorIN9GraphAlgo4EdgeESaIS1_EE17_M_realloc_appendIJRiS5_S5_EEEvDpOT_EN6_GuardC2EPS1_mRS2_
FNA:4,6,_ZZNSt6vectorIS_IiSaIiEESaIS1_EE17_M_realloc_appendIJRKS1_EEEvDpOT_EN6_GuardC2EPS1_mRS2_
FNA:4,11,_ZZNSt6vectorISt5tupleIJiiiEESaIS1_EE17_M_realloc_appendIJS1_EEEvDpOT_EN6_GuardC2EPS1_mRS2_
FNA:4,22,_ZZNSt6vectorIiSaIiEE17_M_realloc_appendIJRKiEEEvDpOT_EN6_GuardC2EPimRS0_
FNL:5,612,617
FNA:5,287,_ZZNSt6vectorIN9GraphAlgo4EdgeESaIS1_EE17_M_realloc_appendIJRiS5_S5_EEEvDpOT_EN6_GuardD2Ev
FNA:5,6,_ZZNSt6vectorIS_IiSaIiEESaIS1_EE17_M_realloc_appendIJRKS1_EEEvDpOT_EN6_GuardD2Ev
FNA:5,11,_ZZNSt6vectorISt5tupleIJiiiEESaIS1_EE17_M_realloc_appendIJS1_EEEvDpOT_EN6_GuardD2Ev
FNA:5,22,_ZZNSt6vectorIiSaIiEE17_M_realloc_appendIJRKiEEEvDpOT_EN6_GuardD2Ev
FNF:6
FNH:5
DA:111,301
DA:114,301
DA:117,3
DA:119,3
DA:123,298
DA:125,301
DA:210,22
DA:213,22
DA:217,22
DA:219,0
DA:220,0
DA:223,0
DA:224,0
DA:225,0
DA:226,0
DA:227,0
DA:228,0
DA:229,0
DA:231,0
DA:232,0
DA:235,22
DA:236,22
DA:238,22
DA:240,22
DA:241,22
DA:242,22
DA:243,22
DA:244,22
DA:245,22
DA:246,22
DA:248,0
DA:250,0
DA:251,0
DA:255,0
DA:257,0
DA:258,0
DA:260,0
DA:262,22
DA:264,22
DA:581,326
DA:590,326
DA:591,326
DA:592,0
DA:593,326
DA:594,326
DA:595,326
DA:596,326
DA:597,326
DA:607,326
DA:608,326
DA:609,326
DA:612,326
DA:614,326
DA:616,128
DA:617,326
DA:624,326
DA:634,652
DA:635,326
DA:647,326
DA:648,326
DA:649,326
DA:686,326
DA:687,326
DA:688,326
DA:692,326
DA:693,326
DA:694,326
DA:695,326
DA:1069,0
DA:1072,0
DA:1073,0
DA:1074,0
DA:1076,0
DA:1077,0
DA:1078,0
DA:1079,0
DA:1084,0
DA:1085,0
DA:1086,0
DA:1087,0
DA:1088,0
DA:1089,0
DA:1091,0
DA:1092,0
DA:1093,0
DA:1094,0
LF:86
LH:49
end_of_record
TN:
SF:/usr/include/c++/14/condition_variable
FNL:0,102,106
FNA:0,16,_ZNSt18condition_variable4waitIZN13BlockingQueueI12PipelineDataE3popEvEUlvE_EEvRSt11unique_lockISt5mutexET_
FNF:1
FNH:1
DA:102,16
DA:104,32
DA:105,16
DA:106,16
LF:4
LH:4
end_of_record
TN:
SF:/usr/include/c++/14/ext/aligned_buffer.h
FNL:0,64,65
FNA:0,24,_ZN9__gnu_cxx16__aligned_membufISt4pairIiiEE7_M_addrEv
FNA:0,216,_ZN9__gnu_cxx16__aligned_membufIiE7_M_addrEv
FNL:1,68,69
FNA:1,75,_ZNK9__gnu_cxx16__aligned_membufISt4pairIiiEE7_M_addrEv
FNA:1,610,_ZNK9__gnu_cxx16__aligned_membufIiE7_M_addrEv
FNL:2,72,73
FNA:2,24,_ZN9__gnu_cxx16__aligned_membufISt4pairIiiEE6_M_ptrEv
FNA:2,216,_ZN9__gnu_cxx16__aligned_membufIiE6_M_ptrEv
FNL:3,76,77
FNA:3,75,_ZNK9__gnu_cxx16__aligned_membufISt4pairIiiEE6_M_ptrEv
FNA:3,610,_ZNK9__gnu_cxx16__aligned_membufIiE6_M_ptrEv
FNF:4
FNH:4
DA:64,240
DA:65,240
DA:68,685
DA:69,685
DA:72,240
DA:73,240
DA:76,685
DA:77,685
LF:8
LH:8
end_of_record
TN:
SF:/usr/include/c++/14/ext/alloc_traits.h
FNF:0
FNH:0
DA:98,1319
DA:106,22
DA:118,0
LF:3
LH:2
end_of_record
TN:
SF:/usr/include/c++/14/ext/string_conversions.h
FNL:0,56,96
FNA:0,6,_ZN9__gnu_cxx6__stoaIlicJiEEET0_PFT_PKT1_PPS3_DpT2_EPKcS5_PmS9_
FNL:1,65,65
FNA:1,6,_ZZN9__gnu_cxx6__stoaIlicJiEEET0_PFT_PKT1_PPS3_DpT2_EPKcS5_PmS9_EN11_Save_errnoC2Ev
FNL:2,66,66
FNA:2,6,_ZZN9__gnu_cxx6__stoaIlicJiEEET0_PFT_PKT1_PPS3_DpT2_EPKcS5_PmS9_EN11_Save_errnoD2Ev
FNL:3,75,79
FNA:3,6,_ZZN9__gnu_cxx6__stoaIlicJiEEET0_PFT_PKT1_PPS3_DpT2_EPKcS5_PmS9_EN10_Range_chk6_S_chkElSt17integral_constantIbLb1EE
FNF:4
FNH:4
DA:56,6
DA:65,6
DA:66,6
DA:68,6
DA:75,6
DA:78,6
DA:82,6
DA:84,6
DA:85,0
DA:86,12
DA:87,6
DA:88,0
DA:90,6
DA:92,6
DA:93,0
DA:95,6
DA:96,6
LF:17
LH:14
end_of_record
TN:
SF:/usr/include/c++/14/new
FNL:0,179,180
FNA:0,937,_ZnwmPv
FNL:1,185,185
FNA:1,0,_ZdlPvS_
FNF:2
FNH:1
DA:179,937
DA:180,937
DA:185,0
LF:3
LH:2
end_of_record
TN:
SF:/usr/include/c++/14/tuple
FNL:0,100,101
FNA:0,3,_ZNSt10_Head_baseILm1ESt14default_deleteI17AlgorithmStrategyELb1EEC2IS0_I12MSTAlgorithmEEEOT_
FNA:0,3,_ZNSt10_Head_baseILm1ESt14default_deleteI17AlgorithmStrategyELb1EEC2IS0_I12SCCAlgorithmEEEOT_
FNA:0,3,_ZNSt10_Head_baseILm1ESt14default_deleteI17AlgorithmStrategyELb1EEC2IS0_I15CliqueAlgorithmEEEOT_
FNA:0,3,_ZNSt10_Head_baseILm1ESt14default_deleteI17AlgorithmStrategyELb1EEC2IS0_I16MaxFlowAlgorithmEEEOT_
FNL:1,134,134
FNA:1,3,_ZNSt10_Head_baseILm1ESt14default_deleteI12MSTAlgorithmELb1EE7_M_headERS3_
FNA:1,3,_ZNSt10_Head_baseILm1ESt14default_deleteI12SCCAlgorithmELb1EE7_M_headERS3_
FNA:1,3,_ZNSt10_Head_baseILm1ESt14default_deleteI15CliqueAlgorithmELb1EE7_M_headERS3_
FNA:1,3,_ZNSt10_Head_baseILm1ESt14default_deleteI16MaxFlowAlgorithmELb1EE7_M_headERS3_
FNA:1,12,_ZNSt10_Head_baseILm1ESt14default_deleteI17AlgorithmStrategyELb1EE7_M_headERS3_
FNA:1,0,_ZNSt10_Head_baseILm1ESt14default_deleteINSt6thread6_StateEELb1EE7_M_headERS4_
FNL:2,1474,1476
FNA:2,4,_ZNSt5tupleIJPFvvEEEC2ILb1ELb1EEERKS1_
FNL:3,1489,1492
FNA:3,14,_ZNSt5tupleIJiiiEEC2IJRKiRiS3_ELb1ELb1EEEDpOT_
FNL:4,1505,1505
FNA:4,42,_ZNSt5tupleIJiiiEEC2EOS0_
FNL:5,1918,1925
FNA:5,13,_ZNSt5tupleIJiiiEEaSEOS0_
FNL:6,1951,1953
FNA:6,0,_ZNSt5tupleIJiiiEE4swapERS0_
FNL:7,199,200
FNA:7,3,_ZNSt10_Head_baseILm0EP12MSTAlgorithmLb0EEC2Ev
FNA:7,3,_ZNSt10_Head_baseILm0EP12SCCAlgorithmLb0EEC2Ev
FNA:7,3,_ZNSt10_Head_baseILm0EP15CliqueAlgorithmLb0EEC2Ev
FNA:7,3,_ZNSt10_Head_baseILm0EP16MaxFlowAlgorithmLb0EEC2Ev
FNA:7,0,_ZNSt10_Head_baseILm0EP17AlgorithmStrategyLb0EEC2Ev
FNA:7,10,_ZNSt10_Head_baseILm0EPNSt6thread6_StateELb0EEC2Ev
FNL:8,202,203
FNA:8,6,_ZNSt10_Head_baseILm0EPFviELb0EEC2ERKS1_
FNA:8,4,_ZNSt10_Head_baseILm0EPFvvELb0EEC2ERKS1_
FNA:8,14,_ZNSt10_Head_baseILm0EiLb0EEC2ERKi
FNA:8,14,_ZNSt10_Head_baseILm2EiLb0EEC2ERKi
FNL:9,209,210
FNA:9,12,_ZNSt10_Head_baseILm0EP17AlgorithmStrategyLb0EEC2IRS1_EEOT_
FNA:9,20,_ZNSt10_Head_baseILm1EiLb0EEC2IRiEEOT_
FNL:10,2091,2093
FNA:10,3,_ZNSt5tupleIJP12MSTAlgorithmSt14default_deleteIS0_EEEC2ILb1ELb1EEEv
FNA:10,3,_ZNSt5tupleIJP12SCCAlgorithmSt14default_deleteIS0_EEEC2ILb1ELb1EEEv
FNA:10,3,_ZNSt5tupleIJP15CliqueAlgorithmSt14default_deleteIS0_EEEC2ILb1ELb1EEEv
FNA:10,3,_ZNSt5tupleIJP16MaxFlowAlgorithmSt14default_deleteIS0_EEEC2ILb1ELb1EEEv
FNA:10,0,_ZNSt5tupleIJP17AlgorithmStrategySt14default_deleteIS0_EEEC2ILb1ELb1EEEv
FNA:10,10,_ZNSt5tupleIJPNSt6thread6_StateESt14default_deleteIS1_EEEC2ILb1ELb1EEEv
FNL:11,2119,2122
FNA:11,3,_ZNSt5tupleIJP17AlgorithmStrategySt14default_deleteIS0_EEEC2IRS1_S2_I12MSTAlgorithmELb1EEEOT_OT0_
FNA:11,3,_ZNSt5tupleIJP17AlgorithmStrategySt14default_deleteIS0_EEEC2IRS1_S2_I12SCCAlgorithmELb1EEEOT_OT0_
FNA:11,3,_ZNSt5tupleIJP17AlgorithmStrategySt14default_deleteIS0_EEEC2IRS1_S2_I15CliqueAlgorithmELb1EEEOT_OT0_
FNA:11,3,_ZNSt5tupleIJP17AlgorithmStrategySt14default_deleteIS0_EEEC2IRS1_S2_I16MaxFlowAlgorithmELb1EEEOT_OT0_
FNA:11,6,_ZNSt5tupleIJPFviEiEEC2IRS0_RiLb1EEEOT_OT0_
FNL:12,2429,2430
FNA:12,12,_ZSt12__get_helperILm0EP12MSTAlgorithmJSt14default_deleteIS0_EEERT0_RSt11_Tuple_implIXT_EJS4_DpT1_EE
FNA:12,12,_ZSt12__get_helperILm0EP12SCCAlgorithmJSt14default_deleteIS0_EEERT0_RSt11_Tuple_implIXT_EJS4_DpT1_EE
FNA:12,12,_ZSt12__get_helperILm0EP15CliqueAlgorithmJSt14default_deleteIS0_EEERT0_RSt11_Tuple_implIXT_EJS4_DpT1_EE
FNA:12,12,_ZSt12__get_helperILm0EP16MaxFlowAlgorithmJSt14default_deleteIS0_EEERT0_RSt11_Tuple_implIXT_EJS4_DpT1_EE
FNA:12,12,_ZSt12__get_helperILm0EP17AlgorithmStrategyJSt14default_deleteIS0_EEERT0_RSt11_Tuple_implIXT_EJS4_DpT1_EE
FNA:12,6,_ZSt12__get_helperILm0EPFviEJiEERT0_RSt11_Tuple_implIXT_EJS2_DpT1_EE
FNA:12,4,_ZSt12__get_helperILm0EPFvvEJEERT0_RSt11_Tuple_implIXT_EJS2_DpT1_EE
FNA:12,20,_ZSt12__get_helperILm0EPNSt6thread6_StateEJSt14default_deleteIS1_EEERT0_RSt11_Tuple_implIXT_EJS5_DpT1_EE
FNA:12,14,_ZSt12__get_helperILm0EiJiiEERT0_RSt11_Tuple_implIXT_EJS0_DpT1_EE
FNA:12,3,_ZSt12__get_helperILm1ESt14default_deleteI12MSTAlgorithmEJEERT0_RSt11_Tuple_implIXT_EJS3_DpT1_EE
FNA:12,3,_ZSt12__get_helperILm1ESt14default_deleteI12SCCAlgorithmEJEERT0_RSt11_Tuple_implIXT_EJS3_DpT1_EE
FNA:12,3,_ZSt12__get_helperILm1ESt14default_deleteI15CliqueAlgorithmEJEERT0_RSt11_Tuple_implIXT_EJS3_DpT1_EE
FNA:12,3,_ZSt12__get_helperILm1ESt14default_deleteI16MaxFlowAlgorithmEJEERT0_RSt11_Tuple_implIXT_EJS3_DpT1_EE
FNA:12,12,_ZSt12__get_helperILm1ESt14default_deleteI17AlgorithmStrategyEJEERT0_RSt11_Tuple_implIXT_EJS3_DpT1_EE
FNA:12,0,_ZSt12__get_helperILm1ESt14default_deleteINSt6thread6_StateEEJEERT0_RSt11_Tuple_implIXT_EJS4_DpT1_EE
FNA:12,6,_ZSt12__get_helperILm1EiJEERT0_RSt11_Tuple_implIXT_EJS0_DpT1_EE
FNA:12,14,_ZSt12__get_helperILm1EiJiEERT0_RSt11_Tuple_implIXT_EJS0_DpT1_EE
FNA:12,14,_ZSt12__get_helperILm2EiJEERT0_RSt11_Tuple_implIXT_EJS0_DpT1_EE
FNL:13,243,243
FNA:13,12,_ZNSt10_Head_baseILm0EP12MSTAlgorithmLb0EE7_M_headERS2_
FNA:13,12,_ZNSt10_Head_baseILm0EP12SCCAlgorithmLb0EE7_M_headERS2_
FNA:13,12,_ZNSt10_Head_baseILm0EP15CliqueAlgorithmLb0EE7_M_headERS2_
FNA:13,12,_ZNSt10_Head_baseILm0EP16MaxFlowAlgorithmLb0EE7_M_headERS2_
FNA:13,12,_ZNSt10_Head_baseILm0EP17AlgorithmStrategyLb0EE7_M_headERS2_
FNA:13,6,_ZNSt10_Head_baseILm0EPFviELb0EE7_M_headERS2_
FNA:13,4,_ZNSt10_Head_baseILm0EPFvvELb0EE7_M_headERS2_
FNA:13,20,_ZNSt10_Head_baseILm0EPNSt6thread6_StateELb0EE7_M_headERS3_
FNA:13,40,_ZNSt10_Head_baseILm0EiLb0EE7_M_headERS0_
FNA:13,46,_ZNSt10_Head_baseILm1EiLb0EE7_M_headERS0_
FNA:13,40,_ZNSt10_Head_baseILm2EiLb0EE7_M_headERS0_
FNL:14,2434,2435
FNA:14,12,_ZSt12__get_helperILm0EP17AlgorithmStrategyJSt14default_deleteIS0_EEERKT0_RKSt11_Tuple_implIXT_EJS4_DpT1_EE
FNA:14,88,_ZSt12__get_helperILm0EiJiiEERKT0_RKSt11_Tuple_implIXT_EJS0_DpT1_EE
FNA:14,88,_ZSt12__get_helperILm1EiJiEERKT0_RKSt11_Tuple_implIXT_EJS0_DpT1_EE
FNA:14,20,_ZSt12__get_helperILm2EiJEERKT0_RKSt11_Tuple_implIXT_EJS0_DpT1_EE
FNL:15,2445,2446
FNA:15,12,_ZSt3getILm0EJP12MSTAlgorithmSt14default_deleteIS0_EEERNSt13tuple_elementIXT_ESt5tupleIJDpT0_EEE4typeERS8_
FNA:15,12,_ZSt3getILm0EJP12SCCAlgorithmSt14default_deleteIS0_EEERNSt13tuple_elementIXT_ESt5tupleIJDpT0_EEE4typeERS8_
FNA:15,12,_ZSt3getILm0EJP15CliqueAlgorithmSt14default_deleteIS0_EEERNSt13tuple_elementIXT_ESt5tupleIJDpT0_EEE4typeERS8_
FNA:15,12,_ZSt3getILm0EJP16MaxFlowAlgorithmSt14default_deleteIS0_EEERNSt13tuple_elementIXT_ESt5tupleIJDpT0_EEE4typeERS8_
FNA:15,12,_ZSt3getILm0EJP17AlgorithmStrategySt14default_deleteIS0_EEERNSt13tuple_elementIXT_ESt5tupleIJDpT0_EEE4typeERS8_
FNA:15,20,_ZSt3getILm0EJPNSt6thread6_StateESt14default_deleteIS1_EEERNSt13tuple_elementIXT_ESt5tupleIJDpT0_EEE4typeERS9_
FNA:15,3,_ZSt3getILm1EJP12MSTAlgorithmSt14default_deleteIS0_EEERNSt13tuple_elementIXT_ESt5tupleIJDpT0_EEE4typeERS8_
FNA:15,3,_ZSt3getILm1EJP12SCCAlgorithmSt14default_deleteIS0_EEERNSt13tuple_elementIXT_ESt5tupleIJDpT0_EEE4typeERS8_
FNA:15,3,_ZSt3getILm1EJP15CliqueAlgorithmSt14default_deleteIS0_EEERNSt13tuple_elementIXT_ESt5tupleIJDpT0_EEE4typeERS8_
FNA:15,3,_ZSt3getILm1EJP16MaxFlowAlgorithmSt14default_deleteIS0_EEERNSt13tuple_elementIXT_ESt5tupleIJDpT0_EEE4typeERS8_
FNA:15,12,_ZSt3getILm1EJP17AlgorithmStrategySt14default_deleteIS0_EEERNSt13tuple_elementIXT_ESt5tupleIJDpT0_EEE4typeERS8_
FNA:15,0,_ZSt3getILm1EJPNSt6thread6_StateESt14default_deleteIS1_EEERNSt13tuple_elementIXT_ESt5tupleIJDpT0_EEE4typeERS9_
FNL:16,2451,2452
FNA:16,12,_ZSt3getILm0EJP17AlgorithmStrategySt14default_deleteIS0_EEERKNSt13tuple_elementIXT_ESt5tupleIJDpT0_EEE4typeERKS8_
FNA:16,88,_ZSt3getILm0EJiiiEERKNSt13tuple_elementIXT_ESt5tupleIJDpT0_EEE4typeERKS4_
FNA:16,88,_ZSt3getILm1EJiiiEERKNSt13tuple_elementIXT_ESt5tupleIJDpT0_EEE4typeERKS4_
FNA:16,20,_ZSt3getILm2EJiiiEERKNSt13tuple_elementIXT_ESt5tupleIJDpT0_EEE4typeERKS4_
FNL:17,2457,2461
FNA:17,6,_ZSt3getILm0EJPFviEiEEONSt13tuple_elementIXT_ESt5tupleIJDpT0_EEE4typeEOS6_
FNA:17,4,_ZSt3getILm0EJPFvvEEEONSt13tuple_elementIXT_ESt5tupleIJDpT0_EEE4typeEOS6_
FNA:17,14,_ZSt3getILm0EJiiiEEONSt13tuple_elementIXT_ESt5tupleIJDpT0_EEE4typeEOS4_
FNA:17,6,_ZSt3getILm1EJPFviEiEEONSt13tuple_elementIXT_ESt5tupleIJDpT0_EEE4typeEOS6_
FNA:17,14,_ZSt3getILm1EJiiiEEONSt13tuple_elementIXT_ESt5tupleIJDpT0_EEE4typeEOS4_
FNA:17,14,_ZSt3getILm2EJiiiEEONSt13tuple_elementIXT_ESt5tupleIJDpT0_EEE4typeEOS4_
FNL:18,246,246
FNA:18,12,_ZNSt10_Head_baseILm0EP17AlgorithmStrategyLb0EE7_M_headERKS2_
FNA:18,88,_ZNSt10_Head_baseILm0EiLb0EE7_M_headERKS0_
FNA:18,88,_ZNSt10_Head_baseILm1EiLb0EE7_M_headERKS0_
FNA:18,20,_ZNSt10_Head_baseILm2EiLb0EE7_M_headERKS0_
FNL:19,2538,2543
FNA:19,22,_ZNSt15__tuple_compareISt5tupleIJiiiEES1_Lm0ELm3EE6__lessERKS1_S4_
FNA:19,22,_ZNSt15__tuple_compareISt5tupleIJiiiEES1_Lm1ELm3EE6__lessERKS1_S4_
FNA:19,6,_ZNSt15__tuple_compareISt5tupleIJiiiEES1_Lm2ELm3EE6__lessERKS1_S4_
FNL:20,2553,2553
FNA:20,0,_ZNSt15__tuple_compareISt5tupleIJiiiEES1_Lm3ELm3EE6__lessERKS1_S4_
FNL:21,2600,2609
FNA:21,22,_ZStltIJiiiEJiiiEEbRKSt5tupleIJDpT_EERKS0_IJDpT0_EE
FNL:22,2805,2807
FNA:22,0,_ZSt4swapIJiiiEENSt9enable_ifIXsrSt6__and_IJDpSt14__is_swappableIT_EEE5valueEvE4typeERSt5tupleIJDpS3_EESC_
FNL:23,294,294
FNA:23,12,_ZNSt11_Tuple_implILm0EJP12MSTAlgorithmSt14default_deleteIS0_EEE7_M_headERS4_
FNA:23,12,_ZNSt11_Tuple_implILm0EJP12SCCAlgorithmSt14default_deleteIS0_EEE7_M_headERS4_
FNA:23,12,_ZNSt11_Tuple_implILm0EJP15CliqueAlgorithmSt14default_deleteIS0_EEE7_M_headERS4_
FNA:23,12,_ZNSt11_Tuple_implILm0EJP16MaxFlowAlgorithmSt14default_deleteIS0_EEE7_M_headERS4_
FNA:23,12,_ZNSt11_Tuple_implILm0EJP17AlgorithmStrategySt14default_deleteIS0_EEE7_M_headERS4_
FNA:23,6,_ZNSt11_Tuple_implILm0EJPFviEiEE7_M_headERS2_
FNA:23,20,_ZNSt11_Tuple_implILm0EJPNSt6thread6_StateESt14default_deleteIS1_EEE7_M_headERS5_
FNA:23,40,_ZNSt11_Tuple_implILm0EJiiiEE7_M_headERS0_
FNA:23,40,_ZNSt11_Tuple_implILm1EJiiEE7_M_headERS0_
FNL:24,297,297
FNA:24,12,_ZNSt11_Tuple_implILm0EJP17AlgorithmStrategySt14default_deleteIS0_EEE7_M_headERKS4_
FNA:24,88,_ZNSt11_Tuple_implILm0EJiiiEE7_M_headERKS0_
FNA:24,88,_ZNSt11_Tuple_implILm1EJiiEE7_M_headERKS0_
FNL:25,300,300
FNA:25,26,_ZNSt11_Tuple_implILm0EJiiiEE7_M_tailERS0_
FNA:25,26,_ZNSt11_Tuple_implILm1EJiiEE7_M_tailERS0_
FNL:26,305,306
FNA:26,3,_ZNSt11_Tuple_implILm0EJP12MSTAlgorithmSt14default_deleteIS0_EEEC2Ev
FNA:26,3,_ZNSt11_Tuple_implILm0EJP12SCCAlgorithmSt14default_deleteIS0_EEEC2Ev
FNA:26,3,_ZNSt11_Tuple_implILm0EJP15CliqueAlgorithmSt14default_deleteIS0_EEEC2Ev
FNA:26,3,_ZNSt11_Tuple_implILm0EJP16MaxFlowAlgorithmSt14default_deleteIS0_EEEC2Ev
FNA:26,0,_ZNSt11_Tuple_implILm0EJP17AlgorithmStrategySt14default_deleteIS0_EEEC2Ev
FNA:26,10,_ZNSt11_Tuple_implILm0EJPNSt6thread6_StateESt14default_deleteIS1_EEEC2Ev
FNL:27,316,319
FNA:27,3,_ZNSt11_Tuple_implILm0EJP17AlgorithmStrategySt14default_deleteIS0_EEEC2IRS1_JS2_I12MSTAlgorithmEEvEEOT_DpOT0_
FNA:27,3,_ZNSt11_Tuple_implILm0EJP17AlgorithmStrategySt14default_deleteIS0_EEEC2IRS1_JS2_I12SCCAlgorithmEEvEEOT_DpOT0_
FNA:27,3,_ZNSt11_Tuple_implILm0EJP17AlgorithmStrategySt14default_deleteIS0_EEEC2IRS1_JS2_I15CliqueAlgorithmEEvEEOT_DpOT0_
FNA:27,3,_ZNSt11_Tuple_implILm0EJP17AlgorithmStrategySt14default_deleteIS0_EEEC2IRS1_JS2_I16MaxFlowAlgorithmEEvEEOT_DpOT0_
FNA:27,6,_ZNSt11_Tuple_implILm0EJPFviEiEEC2IRS0_JRiEvEEOT_DpOT0_
FNA:27,14,_ZNSt11_Tuple_implILm0EJiiiEEC2IRKiJRiS3_EvEEOT_DpOT0_
FNA:27,14,_ZNSt11_Tuple_implILm1EJiiEEC2IRiJRKiEvEEOT_DpOT0_
FNL:28,327,327
FNA:28,42,_ZNSt11_Tuple_implILm0EJiiiEEC2EOS0_
FNA:28,42,_ZNSt11_Tuple_implILm1EJiiEEC2EOS0_
FNL:29,479,485
FNA:29,13,_ZNSt11_Tuple_implILm0EJiiiEE9_M_assignIiJiiEEEvOS_ILm0EJT_DpT0_EE
FNA:29,13,_ZNSt11_Tuple_implILm1EJiiEE9_M_assignIiJiEEEvOS_ILm1EJT_DpT0_EE
FNL:30,529,534
FNA:30,0,_ZNSt11_Tuple_implILm0EJiiiEE7_M_swapERS0_
FNA:30,0,_ZNSt11_Tuple_implILm1EJiiEE7_M_swapERS0_
FNL:31,557,557
FNA:31,4,_ZNSt11_Tuple_implILm0EJPFvvEEE7_M_headERS2_
FNA:31,3,_ZNSt11_Tuple_implILm1EJSt14default_deleteI12MSTAlgorithmEEE7_M_headERS3_
FNA:31,3,_ZNSt11_Tuple_implILm1EJSt14default_deleteI12SCCAlgorithmEEE7_M_headERS3_
FNA:31,3,_ZNSt11_Tuple_implILm1EJSt14default_deleteI15CliqueAlgorithmEEE7_M_headERS3_
FNA:31,3,_ZNSt11_Tuple_implILm1EJSt14default_deleteI16MaxFlowAlgorithmEEE7_M_headERS3_
FNA:31,12,_ZNSt11_Tuple_implILm1EJSt14default_deleteI17AlgorithmStrategyEEE7_M_headERS3_
FNA:31,0,_ZNSt11_Tuple_implILm1EJSt14default_deleteINSt6thread6_StateEEEE7_M_headERS4_
FNA:31,6,_ZNSt11_Tuple_implILm1EJiEE7_M_headERS0_
FNA:31,40,_ZNSt11_Tuple_implILm2EJiEE7_M_headERS0_
FNL:32,560,560
FNA:32,20,_ZNSt11_Tuple_implILm2EJiEE7_M_headERKS0_
FNL:33,563,564
FNA:33,3,_ZNSt11_Tuple_implILm1EJSt14default_deleteI12MSTAlgorithmEEEC2Ev
FNA:33,3,_ZNSt11_Tuple_implILm1EJSt14default_deleteI12SCCAlgorithmEEEC2Ev
FNA:33,3,_ZNSt11_Tuple_implILm1EJSt14default_deleteI15CliqueAlgorithmEEEC2Ev
FNA:33,3,_ZNSt11_Tuple_implILm1EJSt14default_deleteI16MaxFlowAlgorithmEEEC2Ev
FNA:33,0,_ZNSt11_Tuple_implILm1EJSt14default_deleteI17AlgorithmStrategyEEEC2Ev
FNA:33,10,_ZNSt11_Tuple_implILm1EJSt14default_deleteINSt6thread6_StateEEEEC2Ev
FNL:34,567,569
FNA:34,4,_ZNSt11_Tuple_implILm0EJPFvvEEEC2ERKS1_
FNA:34,14,_ZNSt11_Tuple_implILm2EJiEEC2ERKi
FNL:35,573,575
FNA:35,3,_ZNSt11_Tuple_implILm1EJSt14default_deleteI17AlgorithmStrategyEEEC2IS0_I12MSTAlgorithmEEEOT_
FNA:35,3,_ZNSt11_Tuple_implILm1EJSt14default_deleteI17AlgorithmStrategyEEEC2IS0_I12SCCAlgorithmEEEOT_
FNA:35,3,_ZNSt11_Tuple_implILm1EJSt14default_deleteI17AlgorithmStrategyEEEC2IS0_I15CliqueAlgorithmEEEOT_
FNA:35,3,_ZNSt11_Tuple_implILm1EJSt14default_deleteI17AlgorithmStrategyEEEC2IS0_I16MaxFlowAlgorithmEEEOT_
FNA:35,6,_ZNSt11_Tuple_implILm1EJiEEC2IRiEEOT_
FNL:36,587,590
FNA:36,42,_ZNSt11_Tuple_implILm2EJiEEC2EOS0_
FNL:37,717,721
FNA:37,13,_ZNSt11_Tuple_implILm2EJiEE9_M_assignIiEEvOS_ILm2EJT_EE
FNL:38,755,759
FNA:38,0,_ZNSt11_Tuple_implILm2EJiEE7_M_swapERS0_
FNL:39,90,91
FNA:39,3,_ZNSt10_Head_baseILm1ESt14default_deleteI12MSTAlgorithmELb1EEC2Ev
FNA:39,3,_ZNSt10_Head_baseILm1ESt14default_deleteI12SCCAlgorithmELb1EEC2Ev
FNA:39,3,_ZNSt10_Head_baseILm1ESt14default_deleteI15CliqueAlgorithmELb1EEC2Ev
FNA:39,3,_ZNSt10_Head_baseILm1ESt14default_deleteI16MaxFlowAlgorithmELb1EEC2Ev
FNA:39,0,_ZNSt10_Head_baseILm1ESt14default_deleteI17AlgorithmStrategyELb1EEC2Ev
FNA:39,10,_ZNSt10_Head_baseILm1ESt14default_deleteINSt6thread6_StateEELb1EEC2Ev
FNF:40
FNH:35
DA:90,22
DA:91,22
DA:100,12
DA:101,12
DA:134,24
DA:199,22
DA:200,22
DA:202,38
DA:203,38
DA:209,32
DA:210,32
DA:243,216
DA:246,208
DA:294,166
DA:297,188
DA:300,52
DA:305,22
DA:306,22
DA:316,46
DA:318,46
DA:319,46
DA:327,84
DA:479,26
DA:481,26
DA:482,26
DA:483,52
DA:484,26
DA:485,26
DA:529,0
DA:532,0
DA:533,0
DA:534,0
DA:557,74
DA:560,20
DA:563,22
DA:564,22
DA:567,18
DA:568,18
DA:569,18
DA:573,18
DA:574,18
DA:575,18
DA:587,42
DA:589,42
DA:590,42
DA:717,13
DA:719,13
DA:720,13
DA:721,13
DA:755,0
DA:758,0
DA:759,0
DA:1474,4
DA:1476,4
DA:1489,14
DA:1491,14
DA:1492,14
DA:1505,42
DA:1918,13
DA:1923,13
DA:1924,13
DA:1951,0
DA:1953,0
DA:2091,22
DA:2093,22
DA:2119,18
DA:2121,18
DA:2122,18
DA:2429,162
DA:2430,162
DA:2434,208
DA:2435,208
DA:2445,104
DA:2446,104
DA:2451,208
DA:2452,208
DA:2457,58
DA:2460,58
DA:2538,50
DA:2540,50
DA:2541,78
DA:2542,78
DA:2553,0
DA:2600,22
DA:2608,22
DA:2805,0
DA:2807,0
LF:87
LH:75
end_of_record
TN:
SF:/usr/include/x86_64-linux-gnu/c++/14/bits/c++config.h
FNF:0
FNH:0
DA:324,0
DA:550,192
DA:609,0
LF:3
LH:1
end_of_record
TN:
SF:/usr/include/x86_64-linux-gnu/c++/14/bits/gthr-default.h
FNL:0,313,316
FNA:0,90,_ZL18__gthread_active_pv
FNL:1,759,765
FNA:1,45,_ZL20__gthread_mutex_lockP15pthread_mutex_t
FNL:2,789,795
FNA:2,45,_ZL22__gthread_mutex_unlockP15pthread_mutex_t
FNF:3
FNH:3
DA:313,90
DA:315,90
DA:759,45
DA:761,45
DA:762,45
DA:764,0
DA:789,45
DA:791,45
DA:792,45
DA:794,0
LF:10
LH:8
end_of_record
